(lp0
(dp1
S'type'
p2
S'FACTOID'
p3
sS'id'
p4
S'216.1'
p5
sa(dp6
g2
S'FACTOID'
p7
sg4
S'216.2'
p8
sa(dp9
g2
S'FACTOID'
p10
sg4
S'216.3'
p11
sa(dp12
g2
S'FACTOID'
p13
sg4
S'216.4'
p14
sa(dp15
g2
S'FACTOID'
p16
sg4
S'216.5'
p17
sa(dp18
g2
S'LIST'
p19
sg4
S'216.6'
p20
sa(dp21
g2
S'LIST'
p22
sg4
S'216.7'
p23
sa(dp24
g2
S'OTHER'
p25
sg4
S'216.8'
p26
sag1
ag6
ag9
ag12
ag15
ag18
ag21
ag24
ag1
ag6
ag9
ag12
ag15
ag18
ag21
ag24
ag1
ag6
ag9
ag12
ag15
ag18
ag21
ag24
ag1
ag6
ag9
ag12
ag15
ag18
ag21
ag24
ag1
ag6
ag9
ag12
ag15
ag18
ag21
ag24
ag1
ag6
ag9
ag12
ag15
ag18
ag21
ag24
ag1
ag6
ag9
ag12
ag15
ag18
ag21
ag24
a(dp27
g2
S'FACTOID'
p28
sg4
S'217.1'
p29
sa(dp30
g2
S'FACTOID'
p31
sg4
S'217.2'
p32
sa(dp33
g2
S'FACTOID'
p34
sg4
S'217.3'
p35
sa(dp36
g2
S'FACTOID'
p37
sg4
S'217.4'
p38
sa(dp39
g2
S'FACTOID'
p40
sg4
S'217.5'
p41
sa(dp42
g2
S'LIST'
p43
sg4
S'217.6'
p44
sa(dp45
g2
S'OTHER'
p46
sg4
S'217.7'
p47
sag27
ag30
ag33
ag36
ag39
ag42
ag45
ag27
ag30
ag33
ag36
ag39
ag42
ag45
ag27
ag30
ag33
ag36
ag39
ag42
ag45
ag27
ag30
ag33
ag36
ag39
ag42
ag45
ag27
ag30
ag33
ag36
ag39
ag42
ag45
ag27
ag30
ag33
ag36
ag39
ag42
ag45
a(dp48
g2
S'FACTOID'
p49
sg4
S'218.1'
p50
sa(dp51
g2
S'FACTOID'
p52
sg4
S'218.2'
p53
sa(dp54
g2
S'FACTOID'
p55
sg4
S'218.3'
p56
sa(dp57
g2
S'FACTOID'
p58
sg4
S'218.4'
p59
sa(dp60
g2
S'FACTOID'
p61
sg4
S'218.5'
p62
sa(dp63
g2
S'FACTOID'
p64
sg4
S'218.6'
p65
sa(dp66
g2
S'LIST'
p67
sg4
S'218.7'
p68
sa(dp69
g2
S'OTHER'
p70
sg4
S'218.8'
p71
sag48
ag51
ag54
ag57
ag60
ag63
ag66
ag69
ag48
ag51
ag54
ag57
ag60
ag63
ag66
ag69
ag48
ag51
ag54
ag57
ag60
ag63
ag66
ag69
ag48
ag51
ag54
ag57
ag60
ag63
ag66
ag69
ag48
ag51
ag54
ag57
ag60
ag63
ag66
ag69
ag48
ag51
ag54
ag57
ag60
ag63
ag66
ag69
ag48
ag51
ag54
ag57
ag60
ag63
ag66
ag69
a(dp72
g2
S'FACTOID'
p73
sg4
S'219.1'
p74
sa(dp75
g2
S'FACTOID'
p76
sg4
S'219.2'
p77
sa(dp78
g2
S'FACTOID'
p79
sg4
S'219.3'
p80
sa(dp81
g2
S'FACTOID'
p82
sg4
S'219.4'
p83
sa(dp84
g2
S'LIST'
p85
sg4
S'219.5'
p86
sa(dp87
g2
S'FACTOID'
p88
sg4
S'219.6'
p89
sa(dp90
g2
S'OTHER'
p91
sg4
S'219.7'
p92
sag72
ag75
ag78
ag81
ag84
ag87
ag90
ag72
ag75
ag78
ag81
ag84
ag87
ag90
ag72
ag75
ag78
ag81
ag84
ag87
ag90
ag72
ag75
ag78
ag81
ag84
ag87
ag90
ag72
ag75
ag78
ag81
ag84
ag87
ag90
ag72
ag75
ag78
ag81
ag84
ag87
ag90
a(dp93
g2
S'FACTOID'
p94
sg4
S'220.1'
p95
sa(dp96
g2
S'FACTOID'
p97
sg4
S'220.2'
p98
sa(dp99
g2
S'FACTOID'
p100
sg4
S'220.3'
p101
sa(dp102
g2
S'LIST'
p103
sg4
S'220.4'
p104
sa(dp105
g2
S'FACTOID'
p106
sg4
S'220.5'
p107
sa(dp108
g2
S'FACTOID'
p109
sg4
S'220.6'
p110
sa(dp111
g2
S'LIST'
p112
sg4
S'220.7'
p113
sa(dp114
g2
S'OTHER'
p115
sg4
S'220.8'
p116
sag93
ag96
ag99
ag102
ag105
ag108
ag111
ag114
ag93
ag96
ag99
ag102
ag105
ag108
ag111
ag114
ag93
ag96
ag99
ag102
ag105
ag108
ag111
ag114
ag93
ag96
ag99
ag102
ag105
ag108
ag111
ag114
ag93
ag96
ag99
ag102
ag105
ag108
ag111
ag114
ag93
ag96
ag99
ag102
ag105
ag108
ag111
ag114
ag93
ag96
ag99
ag102
ag105
ag108
ag111
ag114
a(dp117
g2
S'FACTOID'
p118
sg4
S'221.1'
p119
sa(dp120
g2
S'FACTOID'
p121
sg4
S'221.2'
p122
sa(dp123
g2
S'FACTOID'
p124
sg4
S'221.3'
p125
sa(dp126
g2
S'FACTOID'
p127
sg4
S'221.4'
p128
sa(dp129
g2
S'FACTOID'
p130
sg4
S'221.5'
p131
sa(dp132
g2
S'FACTOID'
p133
sg4
S'221.6'
p134
sa(dp135
g2
S'LIST'
p136
sg4
S'221.7'
p137
sa(dp138
g2
S'OTHER'
p139
sg4
S'221.8'
p140
sag117
ag120
ag123
ag126
ag129
ag132
ag135
ag138
ag117
ag120
ag123
ag126
ag129
ag132
ag135
ag138
ag117
ag120
ag123
ag126
ag129
ag132
ag135
ag138
ag117
ag120
ag123
ag126
ag129
ag132
ag135
ag138
ag117
ag120
ag123
ag126
ag129
ag132
ag135
ag138
ag117
ag120
ag123
ag126
ag129
ag132
ag135
ag138
ag117
ag120
ag123
ag126
ag129
ag132
ag135
ag138
a(dp141
g2
S'FACTOID'
p142
sg4
S'222.1'
p143
sa(dp144
g2
S'FACTOID'
p145
sg4
S'222.2'
p146
sa(dp147
g2
S'FACTOID'
p148
sg4
S'222.3'
p149
sa(dp150
g2
S'FACTOID'
p151
sg4
S'222.4'
p152
sa(dp153
g2
S'FACTOID'
p154
sg4
S'222.5'
p155
sa(dp156
g2
S'FACTOID'
p157
sg4
S'222.6'
p158
sa(dp159
g2
S'LIST'
p160
sg4
S'222.7'
p161
sa(dp162
g2
S'OTHER'
p163
sg4
S'222.8'
p164
sag141
ag144
ag147
ag150
ag153
ag156
ag159
ag162
ag141
ag144
ag147
ag150
ag153
ag156
ag159
ag162
ag141
ag144
ag147
ag150
ag153
ag156
ag159
ag162
ag141
ag144
ag147
ag150
ag153
ag156
ag159
ag162
ag141
ag144
ag147
ag150
ag153
ag156
ag159
ag162
ag141
ag144
ag147
ag150
ag153
ag156
ag159
ag162
ag141
ag144
ag147
ag150
ag153
ag156
ag159
ag162
a(dp165
g2
S'FACTOID'
p166
sg4
S'223.1'
p167
sa(dp168
g2
S'FACTOID'
p169
sg4
S'223.2'
p170
sa(dp171
g2
S'FACTOID'
p172
sg4
S'223.3'
p173
sa(dp174
g2
S'FACTOID'
p175
sg4
S'223.4'
p176
sa(dp177
g2
S'FACTOID'
p178
sg4
S'223.5'
p179
sa(dp180
g2
S'LIST'
p181
sg4
S'223.6'
p182
sa(dp183
g2
S'OTHER'
p184
sg4
S'223.7'
p185
sag165
ag168
ag171
ag174
ag177
ag180
ag183
ag165
ag168
ag171
ag174
ag177
ag180
ag183
ag165
ag168
ag171
ag174
ag177
ag180
ag183
ag165
ag168
ag171
ag174
ag177
ag180
ag183
ag165
ag168
ag171
ag174
ag177
ag180
ag183
ag165
ag168
ag171
ag174
ag177
ag180
ag183
a(dp186
g2
S'FACTOID'
p187
sg4
S'224.1'
p188
sa(dp189
g2
S'FACTOID'
p190
sg4
S'224.2'
p191
sa(dp192
g2
S'FACTOID'
p193
sg4
S'224.3'
p194
sa(dp195
g2
S'FACTOID'
p196
sg4
S'224.4'
p197
sa(dp198
g2
S'FACTOID'
p199
sg4
S'224.5'
p200
sa(dp201
g2
S'FACTOID'
p202
sg4
S'224.6'
p203
sa(dp204
g2
S'LIST'
p205
sg4
S'224.7'
p206
sa(dp207
g2
S'OTHER'
p208
sg4
S'224.8'
p209
sag186
ag189
ag192
ag195
ag198
ag201
ag204
ag207
ag186
ag189
ag192
ag195
ag198
ag201
ag204
ag207
ag186
ag189
ag192
ag195
ag198
ag201
ag204
ag207
ag186
ag189
ag192
ag195
ag198
ag201
ag204
ag207
ag186
ag189
ag192
ag195
ag198
ag201
ag204
ag207
ag186
ag189
ag192
ag195
ag198
ag201
ag204
ag207
ag186
ag189
ag192
ag195
ag198
ag201
ag204
ag207
a(dp210
g2
S'FACTOID'
p211
sg4
S'225.1'
p212
sa(dp213
g2
S'FACTOID'
p214
sg4
S'225.2'
p215
sa(dp216
g2
S'FACTOID'
p217
sg4
S'225.3'
p218
sa(dp219
g2
S'FACTOID'
p220
sg4
S'225.4'
p221
sa(dp222
g2
S'FACTOID'
p223
sg4
S'225.5'
p224
sa(dp225
g2
S'FACTOID'
p226
sg4
S'225.6'
p227
sa(dp228
g2
S'LIST'
p229
sg4
S'225.7'
p230
sa(dp231
g2
S'OTHER'
p232
sg4
S'225.8'
p233
sag210
ag213
ag216
ag219
ag222
ag225
ag228
ag231
ag210
ag213
ag216
ag219
ag222
ag225
ag228
ag231
ag210
ag213
ag216
ag219
ag222
ag225
ag228
ag231
ag210
ag213
ag216
ag219
ag222
ag225
ag228
ag231
ag210
ag213
ag216
ag219
ag222
ag225
ag228
ag231
ag210
ag213
ag216
ag219
ag222
ag225
ag228
ag231
ag210
ag213
ag216
ag219
ag222
ag225
ag228
ag231
a(dp234
g2
S'FACTOID'
p235
sg4
S'226.1'
p236
sa(dp237
g2
S'FACTOID'
p238
sg4
S'226.2'
p239
sa(dp240
g2
S'FACTOID'
p241
sg4
S'226.3'
p242
sa(dp243
g2
S'FACTOID'
p244
sg4
S'226.4'
p245
sa(dp246
g2
S'FACTOID'
p247
sg4
S'226.5'
p248
sa(dp249
g2
S'FACTOID'
p250
sg4
S'226.6'
p251
sa(dp252
g2
S'LIST'
p253
sg4
S'226.7'
p254
sa(dp255
g2
S'OTHER'
p256
sg4
S'226.8'
p257
sag234
ag237
ag240
ag243
ag246
ag249
ag252
ag255
ag234
ag237
ag240
ag243
ag246
ag249
ag252
ag255
ag234
ag237
ag240
ag243
ag246
ag249
ag252
ag255
ag234
ag237
ag240
ag243
ag246
ag249
ag252
ag255
ag234
ag237
ag240
ag243
ag246
ag249
ag252
ag255
ag234
ag237
ag240
ag243
ag246
ag249
ag252
ag255
ag234
ag237
ag240
ag243
ag246
ag249
ag252
ag255
a(dp258
g2
S'FACTOID'
p259
sg4
S'227.1'
p260
sa(dp261
g2
S'FACTOID'
p262
sg4
S'227.2'
p263
sa(dp264
g2
S'FACTOID'
p265
sg4
S'227.3'
p266
sa(dp267
g2
S'FACTOID'
p268
sg4
S'227.4'
p269
sa(dp270
g2
S'FACTOID'
p271
sg4
S'227.5'
p272
sa(dp273
g2
S'FACTOID'
p274
sg4
S'227.6'
p275
sa(dp276
g2
S'LIST'
p277
sg4
S'227.7'
p278
sa(dp279
g2
S'OTHER'
p280
sg4
S'227.8'
p281
sag258
ag261
ag264
ag267
ag270
ag273
ag276
ag279
ag258
ag261
ag264
ag267
ag270
ag273
ag276
ag279
ag258
ag261
ag264
ag267
ag270
ag273
ag276
ag279
ag258
ag261
ag264
ag267
ag270
ag273
ag276
ag279
ag258
ag261
ag264
ag267
ag270
ag273
ag276
ag279
ag258
ag261
ag264
ag267
ag270
ag273
ag276
ag279
ag258
ag261
ag264
ag267
ag270
ag273
ag276
ag279
a(dp282
g2
S'FACTOID'
p283
sg4
S'228.1'
p284
sa(dp285
g2
S'FACTOID'
p286
sg4
S'228.2'
p287
sa(dp288
g2
S'FACTOID'
p289
sg4
S'228.3'
p290
sa(dp291
g2
S'FACTOID'
p292
sg4
S'228.4'
p293
sa(dp294
g2
S'FACTOID'
p295
sg4
S'228.5'
p296
sa(dp297
g2
S'LIST'
p298
sg4
S'228.6'
p299
sa(dp300
g2
S'OTHER'
p301
sg4
S'228.7'
p302
sag282
ag285
ag288
ag291
ag294
ag297
ag300
ag282
ag285
ag288
ag291
ag294
ag297
ag300
ag282
ag285
ag288
ag291
ag294
ag297
ag300
ag282
ag285
ag288
ag291
ag294
ag297
ag300
ag282
ag285
ag288
ag291
ag294
ag297
ag300
ag282
ag285
ag288
ag291
ag294
ag297
ag300
a(dp303
g2
S'FACTOID'
p304
sg4
S'229.1'
p305
sa(dp306
g2
S'FACTOID'
p307
sg4
S'229.2'
p308
sa(dp309
g2
S'FACTOID'
p310
sg4
S'229.3'
p311
sa(dp312
g2
S'FACTOID'
p313
sg4
S'229.4'
p314
sa(dp315
g2
S'FACTOID'
p316
sg4
S'229.5'
p317
sa(dp318
g2
S'FACTOID'
p319
sg4
S'229.6'
p320
sa(dp321
g2
S'LIST'
p322
sg4
S'229.7'
p323
sa(dp324
g2
S'OTHER'
p325
sg4
S'229.8'
p326
sag303
ag306
ag309
ag312
ag315
ag318
ag321
ag324
ag303
ag306
ag309
ag312
ag315
ag318
ag321
ag324
ag303
ag306
ag309
ag312
ag315
ag318
ag321
ag324
ag303
ag306
ag309
ag312
ag315
ag318
ag321
ag324
ag303
ag306
ag309
ag312
ag315
ag318
ag321
ag324
ag303
ag306
ag309
ag312
ag315
ag318
ag321
ag324
ag303
ag306
ag309
ag312
ag315
ag318
ag321
ag324
a(dp327
g2
S'FACTOID'
p328
sg4
S'230.1'
p329
sa(dp330
g2
S'FACTOID'
p331
sg4
S'230.2'
p332
sa(dp333
g2
S'FACTOID'
p334
sg4
S'230.3'
p335
sa(dp336
g2
S'FACTOID'
p337
sg4
S'230.4'
p338
sa(dp339
g2
S'FACTOID'
p340
sg4
S'230.5'
p341
sa(dp342
g2
S'LIST'
p343
sg4
S'230.6'
p344
sa(dp345
g2
S'OTHER'
p346
sg4
S'230.7'
p347
sag327
ag330
ag333
ag336
ag339
ag342
ag345
ag327
ag330
ag333
ag336
ag339
ag342
ag345
ag327
ag330
ag333
ag336
ag339
ag342
ag345
ag327
ag330
ag333
ag336
ag339
ag342
ag345
ag327
ag330
ag333
ag336
ag339
ag342
ag345
ag327
ag330
ag333
ag336
ag339
ag342
ag345
a(dp348
g2
S'FACTOID'
p349
sg4
S'231.1'
p350
sa(dp351
g2
S'FACTOID'
p352
sg4
S'231.2'
p353
sa(dp354
g2
S'FACTOID'
p355
sg4
S'231.3'
p356
sa(dp357
g2
S'FACTOID'
p358
sg4
S'231.4'
p359
sa(dp360
g2
S'FACTOID'
p361
sg4
S'231.5'
p362
sa(dp363
g2
S'LIST'
p364
sg4
S'231.6'
p365
sa(dp366
g2
S'OTHER'
p367
sg4
S'231.7'
p368
sag348
ag351
ag354
ag357
ag360
ag363
ag366
ag348
ag351
ag354
ag357
ag360
ag363
ag366
ag348
ag351
ag354
ag357
ag360
ag363
ag366
ag348
ag351
ag354
ag357
ag360
ag363
ag366
ag348
ag351
ag354
ag357
ag360
ag363
ag366
ag348
ag351
ag354
ag357
ag360
ag363
ag366
a(dp369
g2
S'FACTOID'
p370
sg4
S'232.1'
p371
sa(dp372
g2
S'FACTOID'
p373
sg4
S'232.2'
p374
sa(dp375
g2
S'FACTOID'
p376
sg4
S'232.3'
p377
sa(dp378
g2
S'FACTOID'
p379
sg4
S'232.4'
p380
sa(dp381
g2
S'FACTOID'
p382
sg4
S'232.5'
p383
sa(dp384
g2
S'LIST'
p385
sg4
S'232.6'
p386
sa(dp387
g2
S'OTHER'
p388
sg4
S'232.7'
p389
sag369
ag372
ag375
ag378
ag381
ag384
ag387
ag369
ag372
ag375
ag378
ag381
ag384
ag387
ag369
ag372
ag375
ag378
ag381
ag384
ag387
ag369
ag372
ag375
ag378
ag381
ag384
ag387
ag369
ag372
ag375
ag378
ag381
ag384
ag387
ag369
ag372
ag375
ag378
ag381
ag384
ag387
a(dp390
g2
S'FACTOID'
p391
sg4
S'233.1'
p392
sa(dp393
g2
S'FACTOID'
p394
sg4
S'233.2'
p395
sa(dp396
g2
S'LIST'
p397
sg4
S'233.3'
p398
sa(dp399
g2
S'FACTOID'
p400
sg4
S'233.4'
p401
sa(dp402
g2
S'FACTOID'
p403
sg4
S'233.5'
p404
sa(dp405
g2
S'OTHER'
p406
sg4
S'233.6'
p407
sag390
ag393
ag396
ag399
ag402
ag405
ag390
ag393
ag396
ag399
ag402
ag405
ag390
ag393
ag396
ag399
ag402
ag405
ag390
ag393
ag396
ag399
ag402
ag405
ag390
ag393
ag396
ag399
ag402
ag405
a(dp408
g2
S'FACTOID'
p409
sg4
S'234.1'
p410
sa(dp411
g2
S'FACTOID'
p412
sg4
S'234.2'
p413
sa(dp414
g2
S'FACTOID'
p415
sg4
S'234.3'
p416
sa(dp417
g2
S'LIST'
p418
sg4
S'234.4'
p419
sa(dp420
g2
S'FACTOID'
p421
sg4
S'234.5'
p422
sa(dp423
g2
S'FACTOID'
p424
sg4
S'234.6'
p425
sa(dp426
g2
S'OTHER'
p427
sg4
S'234.7'
p428
sag408
ag411
ag414
ag417
ag420
ag423
ag426
ag408
ag411
ag414
ag417
ag420
ag423
ag426
ag408
ag411
ag414
ag417
ag420
ag423
ag426
ag408
ag411
ag414
ag417
ag420
ag423
ag426
ag408
ag411
ag414
ag417
ag420
ag423
ag426
ag408
ag411
ag414
ag417
ag420
ag423
ag426
a(dp429
g2
S'FACTOID'
p430
sg4
S'235.1'
p431
sa(dp432
g2
S'FACTOID'
p433
sg4
S'235.2'
p434
sa(dp435
g2
S'FACTOID'
p436
sg4
S'235.3'
p437
sa(dp438
g2
S'LIST'
p439
sg4
S'235.4'
p440
sa(dp441
g2
S'FACTOID'
p442
sg4
S'235.5'
p443
sa(dp444
g2
S'FACTOID'
p445
sg4
S'235.6'
p446
sa(dp447
g2
S'OTHER'
p448
sg4
S'235.7'
p449
sag429
ag432
ag435
ag438
ag441
ag444
ag447
ag429
ag432
ag435
ag438
ag441
ag444
ag447
ag429
ag432
ag435
ag438
ag441
ag444
ag447
ag429
ag432
ag435
ag438
ag441
ag444
ag447
ag429
ag432
ag435
ag438
ag441
ag444
ag447
ag429
ag432
ag435
ag438
ag441
ag444
ag447
a(dp450
g2
S'FACTOID'
p451
sg4
S'236.1'
p452
sa(dp453
g2
S'LIST'
p454
sg4
S'236.2'
p455
sa(dp456
g2
S'FACTOID'
p457
sg4
S'236.3'
p458
sa(dp459
g2
S'FACTOID'
p460
sg4
S'236.4'
p461
sa(dp462
g2
S'FACTOID'
p463
sg4
S'236.5'
p464
sa(dp465
g2
S'FACTOID'
p466
sg4
S'236.6'
p467
sa(dp468
g2
S'OTHER'
p469
sg4
S'236.7'
p470
sag450
ag453
ag456
ag459
ag462
ag465
ag468
ag450
ag453
ag456
ag459
ag462
ag465
ag468
ag450
ag453
ag456
ag459
ag462
ag465
ag468
ag450
ag453
ag456
ag459
ag462
ag465
ag468
ag450
ag453
ag456
ag459
ag462
ag465
ag468
ag450
ag453
ag456
ag459
ag462
ag465
ag468
a(dp471
g2
S'FACTOID'
p472
sg4
S'237.1'
p473
sa(dp474
g2
S'FACTOID'
p475
sg4
S'237.2'
p476
sa(dp477
g2
S'FACTOID'
p478
sg4
S'237.3'
p479
sa(dp480
g2
S'FACTOID'
p481
sg4
S'237.4'
p482
sa(dp483
g2
S'FACTOID'
p484
sg4
S'237.5'
p485
sa(dp486
g2
S'LIST'
p487
sg4
S'237.6'
p488
sa(dp489
g2
S'OTHER'
p490
sg4
S'237.7'
p491
sag471
ag474
ag477
ag480
ag483
ag486
ag489
ag471
ag474
ag477
ag480
ag483
ag486
ag489
ag471
ag474
ag477
ag480
ag483
ag486
ag489
ag471
ag474
ag477
ag480
ag483
ag486
ag489
ag471
ag474
ag477
ag480
ag483
ag486
ag489
ag471
ag474
ag477
ag480
ag483
ag486
ag489
a(dp492
g2
S'FACTOID'
p493
sg4
S'238.1'
p494
sa(dp495
g2
S'FACTOID'
p496
sg4
S'238.2'
p497
sa(dp498
g2
S'FACTOID'
p499
sg4
S'238.3'
p500
sa(dp501
g2
S'FACTOID'
p502
sg4
S'238.4'
p503
sa(dp504
g2
S'LIST'
p505
sg4
S'238.5'
p506
sa(dp507
g2
S'OTHER'
p508
sg4
S'238.6'
p509
sag492
ag495
ag498
ag501
ag504
ag507
ag492
ag495
ag498
ag501
ag504
ag507
ag492
ag495
ag498
ag501
ag504
ag507
ag492
ag495
ag498
ag501
ag504
ag507
ag492
ag495
ag498
ag501
ag504
ag507
a(dp510
g2
S'FACTOID'
p511
sg4
S'239.1'
p512
sa(dp513
g2
S'FACTOID'
p514
sg4
S'239.2'
p515
sa(dp516
g2
S'FACTOID'
p517
sg4
S'239.3'
p518
sa(dp519
g2
S'FACTOID'
p520
sg4
S'239.4'
p521
sa(dp522
g2
S'LIST'
p523
sg4
S'239.5'
p524
sa(dp525
g2
S'OTHER'
p526
sg4
S'239.6'
p527
sag510
ag513
ag516
ag519
ag522
ag525
ag510
ag513
ag516
ag519
ag522
ag525
ag510
ag513
ag516
ag519
ag522
ag525
ag510
ag513
ag516
ag519
ag522
ag525
ag510
ag513
ag516
ag519
ag522
ag525
a(dp528
g2
S'FACTOID'
p529
sg4
S'240.1'
p530
sa(dp531
g2
S'FACTOID'
p532
sg4
S'240.2'
p533
sa(dp534
g2
S'FACTOID'
p535
sg4
S'240.3'
p536
sa(dp537
g2
S'FACTOID'
p538
sg4
S'240.4'
p539
sa(dp540
g2
S'LIST'
p541
sg4
S'240.5'
p542
sa(dp543
g2
S'OTHER'
p544
sg4
S'240.6'
p545
sag528
ag531
ag534
ag537
ag540
ag543
ag528
ag531
ag534
ag537
ag540
ag543
ag528
ag531
ag534
ag537
ag540
ag543
ag528
ag531
ag534
ag537
ag540
ag543
ag528
ag531
ag534
ag537
ag540
ag543
a(dp546
g2
S'FACTOID'
p547
sg4
S'241.1'
p548
sa(dp549
g2
S'FACTOID'
p550
sg4
S'241.2'
p551
sa(dp552
g2
S'FACTOID'
p553
sg4
S'241.3'
p554
sa(dp555
g2
S'FACTOID'
p556
sg4
S'241.4'
p557
sa(dp558
g2
S'FACTOID'
p559
sg4
S'241.5'
p560
sa(dp561
g2
S'LIST'
p562
sg4
S'241.6'
p563
sa(dp564
g2
S'OTHER'
p565
sg4
S'241.7'
p566
sag546
ag549
ag552
ag555
ag558
ag561
ag564
ag546
ag549
ag552
ag555
ag558
ag561
ag564
ag546
ag549
ag552
ag555
ag558
ag561
ag564
ag546
ag549
ag552
ag555
ag558
ag561
ag564
ag546
ag549
ag552
ag555
ag558
ag561
ag564
ag546
ag549
ag552
ag555
ag558
ag561
ag564
a(dp567
g2
S'FACTOID'
p568
sg4
S'242.1'
p569
sa(dp570
g2
S'FACTOID'
p571
sg4
S'242.2'
p572
sa(dp573
g2
S'FACTOID'
p574
sg4
S'242.3'
p575
sa(dp576
g2
S'FACTOID'
p577
sg4
S'242.4'
p578
sa(dp579
g2
S'FACTOID'
p580
sg4
S'242.5'
p581
sa(dp582
g2
S'FACTOID'
p583
sg4
S'242.6'
p584
sa(dp585
g2
S'OTHER'
p586
sg4
S'242.7'
p587
sag567
ag570
ag573
ag576
ag579
ag582
ag585
ag567
ag570
ag573
ag576
ag579
ag582
ag585
ag567
ag570
ag573
ag576
ag579
ag582
ag585
ag567
ag570
ag573
ag576
ag579
ag582
ag585
ag567
ag570
ag573
ag576
ag579
ag582
ag585
ag567
ag570
ag573
ag576
ag579
ag582
ag585
a(dp588
g2
S'LIST'
p589
sg4
S'243.1'
p590
sa(dp591
g2
S'FACTOID'
p592
sg4
S'243.2'
p593
sa(dp594
g2
S'FACTOID'
p595
sg4
S'243.3'
p596
sa(dp597
g2
S'FACTOID'
p598
sg4
S'243.4'
p599
sa(dp600
g2
S'FACTOID'
p601
sg4
S'243.5'
p602
sa(dp603
g2
S'OTHER'
p604
sg4
S'243.6'
p605
sag588
ag591
ag594
ag597
ag600
ag603
ag588
ag591
ag594
ag597
ag600
ag603
ag588
ag591
ag594
ag597
ag600
ag603
ag588
ag591
ag594
ag597
ag600
ag603
ag588
ag591
ag594
ag597
ag600
ag603
a(dp606
g2
S'FACTOID'
p607
sg4
S'244.1'
p608
sa(dp609
g2
S'FACTOID'
p610
sg4
S'244.2'
p611
sa(dp612
g2
S'FACTOID'
p613
sg4
S'244.3'
p614
sa(dp615
g2
S'FACTOID'
p616
sg4
S'244.4'
p617
sa(dp618
g2
S'FACTOID'
p619
sg4
S'244.5'
p620
sa(dp621
g2
S'LIST'
p622
sg4
S'244.6'
p623
sa(dp624
g2
S'OTHER'
p625
sg4
S'244.7'
p626
sag606
ag609
ag612
ag615
ag618
ag621
ag624
ag606
ag609
ag612
ag615
ag618
ag621
ag624
ag606
ag609
ag612
ag615
ag618
ag621
ag624
ag606
ag609
ag612
ag615
ag618
ag621
ag624
ag606
ag609
ag612
ag615
ag618
ag621
ag624
ag606
ag609
ag612
ag615
ag618
ag621
ag624
a(dp627
g2
S'FACTOID'
p628
sg4
S'245.1'
p629
sa(dp630
g2
S'FACTOID'
p631
sg4
S'245.2'
p632
sa(dp633
g2
S'FACTOID'
p634
sg4
S'245.3'
p635
sa(dp636
g2
S'FACTOID'
p637
sg4
S'245.4'
p638
sa(dp639
g2
S'LIST'
p640
sg4
S'245.5'
p641
sa(dp642
g2
S'OTHER'
p643
sg4
S'245.6'
p644
sag627
ag630
ag633
ag636
ag639
ag642
ag627
ag630
ag633
ag636
ag639
ag642
ag627
ag630
ag633
ag636
ag639
ag642
ag627
ag630
ag633
ag636
ag639
ag642
ag627
ag630
ag633
ag636
ag639
ag642
a(dp645
g2
S'LIST'
p646
sg4
S'246.1'
p647
sa(dp648
g2
S'FACTOID'
p649
sg4
S'246.2'
p650
sa(dp651
g2
S'FACTOID'
p652
sg4
S'246.3'
p653
sa(dp654
g2
S'FACTOID'
p655
sg4
S'246.4'
p656
sa(dp657
g2
S'FACTOID'
p658
sg4
S'246.5'
p659
sa(dp660
g2
S'FACTOID'
p661
sg4
S'246.6'
p662
sa(dp663
g2
S'OTHER'
p664
sg4
S'246.7'
p665
sag645
ag648
ag651
ag654
ag657
ag660
ag663
ag645
ag648
ag651
ag654
ag657
ag660
ag663
ag645
ag648
ag651
ag654
ag657
ag660
ag663
ag645
ag648
ag651
ag654
ag657
ag660
ag663
ag645
ag648
ag651
ag654
ag657
ag660
ag663
ag645
ag648
ag651
ag654
ag657
ag660
ag663
a(dp666
g2
S'FACTOID'
p667
sg4
S'247.1'
p668
sa(dp669
g2
S'FACTOID'
p670
sg4
S'247.2'
p671
sa(dp672
g2
S'FACTOID'
p673
sg4
S'247.3'
p674
sa(dp675
g2
S'LIST'
p676
sg4
S'247.4'
p677
sa(dp678
g2
S'FACTOID'
p679
sg4
S'247.5'
p680
sa(dp681
g2
S'FACTOID'
p682
sg4
S'247.6'
p683
sa(dp684
g2
S'LIST'
p685
sg4
S'247.7'
p686
sa(dp687
g2
S'OTHER'
p688
sg4
S'247.8'
p689
sag666
ag669
ag672
ag675
ag678
ag681
ag684
ag687
ag666
ag669
ag672
ag675
ag678
ag681
ag684
ag687
ag666
ag669
ag672
ag675
ag678
ag681
ag684
ag687
ag666
ag669
ag672
ag675
ag678
ag681
ag684
ag687
ag666
ag669
ag672
ag675
ag678
ag681
ag684
ag687
ag666
ag669
ag672
ag675
ag678
ag681
ag684
ag687
ag666
ag669
ag672
ag675
ag678
ag681
ag684
ag687
a(dp690
g2
S'FACTOID'
p691
sg4
S'248.1'
p692
sa(dp693
g2
S'FACTOID'
p694
sg4
S'248.2'
p695
sa(dp696
g2
S'LIST'
p697
sg4
S'248.3'
p698
sa(dp699
g2
S'FACTOID'
p700
sg4
S'248.4'
p701
sa(dp702
g2
S'FACTOID'
p703
sg4
S'248.5'
p704
sa(dp705
g2
S'FACTOID'
p706
sg4
S'248.6'
p707
sa(dp708
g2
S'FACTOID'
p709
sg4
S'248.7'
p710
sa(dp711
g2
S'OTHER'
p712
sg4
S'248.8'
p713
sag690
ag693
ag696
ag699
ag702
ag705
ag708
ag711
ag690
ag693
ag696
ag699
ag702
ag705
ag708
ag711
ag690
ag693
ag696
ag699
ag702
ag705
ag708
ag711
ag690
ag693
ag696
ag699
ag702
ag705
ag708
ag711
ag690
ag693
ag696
ag699
ag702
ag705
ag708
ag711
ag690
ag693
ag696
ag699
ag702
ag705
ag708
ag711
ag690
ag693
ag696
ag699
ag702
ag705
ag708
ag711
a(dp714
g2
S'FACTOID'
p715
sg4
S'249.1'
p716
sa(dp717
g2
S'FACTOID'
p718
sg4
S'249.2'
p719
sa(dp720
g2
S'FACTOID'
p721
sg4
S'249.3'
p722
sa(dp723
g2
S'LIST'
p724
sg4
S'249.4'
p725
sa(dp726
g2
S'FACTOID'
p727
sg4
S'249.5'
p728
sa(dp729
g2
S'FACTOID'
p730
sg4
S'249.6'
p731
sa(dp732
g2
S'FACTOID'
p733
sg4
S'249.7'
p734
sa(dp735
g2
S'OTHER'
p736
sg4
S'249.8'
p737
sag714
ag717
ag720
ag723
ag726
ag729
ag732
ag735
ag714
ag717
ag720
ag723
ag726
ag729
ag732
ag735
ag714
ag717
ag720
ag723
ag726
ag729
ag732
ag735
ag714
ag717
ag720
ag723
ag726
ag729
ag732
ag735
ag714
ag717
ag720
ag723
ag726
ag729
ag732
ag735
ag714
ag717
ag720
ag723
ag726
ag729
ag732
ag735
ag714
ag717
ag720
ag723
ag726
ag729
ag732
ag735
a(dp738
g2
S'FACTOID'
p739
sg4
S'250.1'
p740
sa(dp741
g2
S'FACTOID'
p742
sg4
S'250.2'
p743
sa(dp744
g2
S'LIST'
p745
sg4
S'250.3'
p746
sa(dp747
g2
S'FACTOID'
p748
sg4
S'250.4'
p749
sa(dp750
g2
S'FACTOID'
p751
sg4
S'250.5'
p752
sa(dp753
g2
S'FACTOID'
p754
sg4
S'250.6'
p755
sa(dp756
g2
S'OTHER'
p757
sg4
S'250.7'
p758
sag738
ag741
ag744
ag747
ag750
ag753
ag756
ag738
ag741
ag744
ag747
ag750
ag753
ag756
ag738
ag741
ag744
ag747
ag750
ag753
ag756
ag738
ag741
ag744
ag747
ag750
ag753
ag756
ag738
ag741
ag744
ag747
ag750
ag753
ag756
ag738
ag741
ag744
ag747
ag750
ag753
ag756
a(dp759
g2
S'FACTOID'
p760
sg4
S'251.1'
p761
sa(dp762
g2
S'FACTOID'
p763
sg4
S'251.2'
p764
sa(dp765
g2
S'FACTOID'
p766
sg4
S'251.3'
p767
sa(dp768
g2
S'LIST'
p769
sg4
S'251.4'
p770
sa(dp771
g2
S'FACTOID'
p772
sg4
S'251.5'
p773
sa(dp774
g2
S'FACTOID'
p775
sg4
S'251.6'
p776
sa(dp777
g2
S'OTHER'
p778
sg4
S'251.7'
p779
sag759
ag762
ag765
ag768
ag771
ag774
ag777
ag759
ag762
ag765
ag768
ag771
ag774
ag777
ag759
ag762
ag765
ag768
ag771
ag774
ag777
ag759
ag762
ag765
ag768
ag771
ag774
ag777
ag759
ag762
ag765
ag768
ag771
ag774
ag777
ag759
ag762
ag765
ag768
ag771
ag774
ag777
a(dp780
g2
S'FACTOID'
p781
sg4
S'252.1'
p782
sa(dp783
g2
S'LIST'
p784
sg4
S'252.2'
p785
sa(dp786
g2
S'LIST'
p787
sg4
S'252.3'
p788
sa(dp789
g2
S'FACTOID'
p790
sg4
S'252.4'
p791
sa(dp792
g2
S'FACTOID'
p793
sg4
S'252.5'
p794
sa(dp795
g2
S'FACTOID'
p796
sg4
S'252.6'
p797
sa(dp798
g2
S'FACTOID'
p799
sg4
S'252.7'
p800
sa(dp801
g2
S'OTHER'
p802
sg4
S'252.8'
p803
sag780
ag783
ag786
ag789
ag792
ag795
ag798
ag801
ag780
ag783
ag786
ag789
ag792
ag795
ag798
ag801
ag780
ag783
ag786
ag789
ag792
ag795
ag798
ag801
ag780
ag783
ag786
ag789
ag792
ag795
ag798
ag801
ag780
ag783
ag786
ag789
ag792
ag795
ag798
ag801
ag780
ag783
ag786
ag789
ag792
ag795
ag798
ag801
ag780
ag783
ag786
ag789
ag792
ag795
ag798
ag801
a(dp804
g2
S'FACTOID'
p805
sg4
S'253.1'
p806
sa(dp807
g2
S'FACTOID'
p808
sg4
S'253.2'
p809
sa(dp810
g2
S'FACTOID'
p811
sg4
S'253.3'
p812
sa(dp813
g2
S'LIST'
p814
sg4
S'253.4'
p815
sa(dp816
g2
S'FACTOID'
p817
sg4
S'253.5'
p818
sa(dp819
g2
S'LIST'
p820
sg4
S'253.6'
p821
sa(dp822
g2
S'FACTOID'
p823
sg4
S'253.7'
p824
sa(dp825
g2
S'OTHER'
p826
sg4
S'253.8'
p827
sag804
ag807
ag810
ag813
ag816
ag819
ag822
ag825
ag804
ag807
ag810
ag813
ag816
ag819
ag822
ag825
ag804
ag807
ag810
ag813
ag816
ag819
ag822
ag825
ag804
ag807
ag810
ag813
ag816
ag819
ag822
ag825
ag804
ag807
ag810
ag813
ag816
ag819
ag822
ag825
ag804
ag807
ag810
ag813
ag816
ag819
ag822
ag825
ag804
ag807
ag810
ag813
ag816
ag819
ag822
ag825
a(dp828
g2
S'FACTOID'
p829
sg4
S'254.1'
p830
sa(dp831
g2
S'FACTOID'
p832
sg4
S'254.2'
p833
sa(dp834
g2
S'FACTOID'
p835
sg4
S'254.3'
p836
sa(dp837
g2
S'FACTOID'
p838
sg4
S'254.4'
p839
sa(dp840
g2
S'LIST'
p841
sg4
S'254.5'
p842
sa(dp843
g2
S'LIST'
p844
sg4
S'254.6'
p845
sa(dp846
g2
S'FACTOID'
p847
sg4
S'254.7'
p848
sa(dp849
g2
S'OTHER'
p850
sg4
S'254.8'
p851
sag828
ag831
ag834
ag837
ag840
ag843
ag846
ag849
ag828
ag831
ag834
ag837
ag840
ag843
ag846
ag849
ag828
ag831
ag834
ag837
ag840
ag843
ag846
ag849
ag828
ag831
ag834
ag837
ag840
ag843
ag846
ag849
ag828
ag831
ag834
ag837
ag840
ag843
ag846
ag849
ag828
ag831
ag834
ag837
ag840
ag843
ag846
ag849
ag828
ag831
ag834
ag837
ag840
ag843
ag846
ag849
a(dp852
g2
S'FACTOID'
p853
sg4
S'255.1'
p854
sa(dp855
g2
S'FACTOID'
p856
sg4
S'255.2'
p857
sa(dp858
g2
S'LIST'
p859
sg4
S'255.3'
p860
sa(dp861
g2
S'FACTOID'
p862
sg4
S'255.4'
p863
sa(dp864
g2
S'LIST'
p865
sg4
S'255.5'
p866
sa(dp867
g2
S'FACTOID'
p868
sg4
S'255.6'
p869
sa(dp870
g2
S'OTHER'
p871
sg4
S'255.7'
p872
sag852
ag855
ag858
ag861
ag864
ag867
ag870
ag852
ag855
ag858
ag861
ag864
ag867
ag870
ag852
ag855
ag858
ag861
ag864
ag867
ag870
ag852
ag855
ag858
ag861
ag864
ag867
ag870
ag852
ag855
ag858
ag861
ag864
ag867
ag870
ag852
ag855
ag858
ag861
ag864
ag867
ag870
a(dp873
g2
S'FACTOID'
p874
sg4
S'256.1'
p875
sa(dp876
g2
S'FACTOID'
p877
sg4
S'256.2'
p878
sa(dp879
g2
S'FACTOID'
p880
sg4
S'256.3'
p881
sa(dp882
g2
S'LIST'
p883
sg4
S'256.4'
p884
sa(dp885
g2
S'FACTOID'
p886
sg4
S'256.5'
p887
sa(dp888
g2
S'FACTOID'
p889
sg4
S'256.6'
p890
sa(dp891
g2
S'FACTOID'
p892
sg4
S'256.7'
p893
sa(dp894
g2
S'OTHER'
p895
sg4
S'256.8'
p896
sag873
ag876
ag879
ag882
ag885
ag888
ag891
ag894
ag873
ag876
ag879
ag882
ag885
ag888
ag891
ag894
ag873
ag876
ag879
ag882
ag885
ag888
ag891
ag894
ag873
ag876
ag879
ag882
ag885
ag888
ag891
ag894
ag873
ag876
ag879
ag882
ag885
ag888
ag891
ag894
ag873
ag876
ag879
ag882
ag885
ag888
ag891
ag894
ag873
ag876
ag879
ag882
ag885
ag888
ag891
ag894
a(dp897
g2
S'FACTOID'
p898
sg4
S'257.1'
p899
sa(dp900
g2
S'FACTOID'
p901
sg4
S'257.2'
p902
sa(dp903
g2
S'FACTOID'
p904
sg4
S'257.3'
p905
sa(dp906
g2
S'LIST'
p907
sg4
S'257.4'
p908
sa(dp909
g2
S'FACTOID'
p910
sg4
S'257.5'
p911
sa(dp912
g2
S'FACTOID'
p913
sg4
S'257.6'
p914
sa(dp915
g2
S'FACTOID'
p916
sg4
S'257.7'
p917
sa(dp918
g2
S'OTHER'
p919
sg4
S'257.8'
p920
sag897
ag900
ag903
ag906
ag909
ag912
ag915
ag918
ag897
ag900
ag903
ag906
ag909
ag912
ag915
ag918
ag897
ag900
ag903
ag906
ag909
ag912
ag915
ag918
ag897
ag900
ag903
ag906
ag909
ag912
ag915
ag918
ag897
ag900
ag903
ag906
ag909
ag912
ag915
ag918
ag897
ag900
ag903
ag906
ag909
ag912
ag915
ag918
ag897
ag900
ag903
ag906
ag909
ag912
ag915
ag918
a(dp921
g2
S'FACTOID'
p922
sg4
S'258.1'
p923
sa(dp924
g2
S'FACTOID'
p925
sg4
S'258.2'
p926
sa(dp927
g2
S'FACTOID'
p928
sg4
S'258.3'
p929
sa(dp930
g2
S'FACTOID'
p931
sg4
S'258.4'
p932
sa(dp933
g2
S'FACTOID'
p934
sg4
S'258.5'
p935
sa(dp936
g2
S'FACTOID'
p937
sg4
S'258.6'
p938
sa(dp939
g2
S'LIST'
p940
sg4
S'258.7'
p941
sa(dp942
g2
S'FACTOID'
p943
sg4
S'258.8'
p944
sa(dp945
g2
S'OTHER'
p946
sg4
S'258.9'
p947
sag921
ag924
ag927
ag930
ag933
ag936
ag939
ag942
ag945
ag921
ag924
ag927
ag930
ag933
ag936
ag939
ag942
ag945
ag921
ag924
ag927
ag930
ag933
ag936
ag939
ag942
ag945
ag921
ag924
ag927
ag930
ag933
ag936
ag939
ag942
ag945
ag921
ag924
ag927
ag930
ag933
ag936
ag939
ag942
ag945
ag921
ag924
ag927
ag930
ag933
ag936
ag939
ag942
ag945
ag921
ag924
ag927
ag930
ag933
ag936
ag939
ag942
ag945
ag921
ag924
ag927
ag930
ag933
ag936
ag939
ag942
ag945
a(dp948
g2
S'FACTOID'
p949
sg4
S'259.1'
p950
sa(dp951
g2
S'FACTOID'
p952
sg4
S'259.2'
p953
sa(dp954
g2
S'FACTOID'
p955
sg4
S'259.3'
p956
sa(dp957
g2
S'LIST'
p958
sg4
S'259.4'
p959
sa(dp960
g2
S'FACTOID'
p961
sg4
S'259.5'
p962
sa(dp963
g2
S'FACTOID'
p964
sg4
S'259.6'
p965
sa(dp966
g2
S'LIST'
p967
sg4
S'259.7'
p968
sa(dp969
g2
S'FACTOID'
p970
sg4
S'259.8'
p971
sa(dp972
g2
S'OTHER'
p973
sg4
S'259.9'
p974
sag948
ag951
ag954
ag957
ag960
ag963
ag966
ag969
ag972
ag948
ag951
ag954
ag957
ag960
ag963
ag966
ag969
ag972
ag948
ag951
ag954
ag957
ag960
ag963
ag966
ag969
ag972
ag948
ag951
ag954
ag957
ag960
ag963
ag966
ag969
ag972
ag948
ag951
ag954
ag957
ag960
ag963
ag966
ag969
ag972
ag948
ag951
ag954
ag957
ag960
ag963
ag966
ag969
ag972
ag948
ag951
ag954
ag957
ag960
ag963
ag966
ag969
ag972
ag948
ag951
ag954
ag957
ag960
ag963
ag966
ag969
ag972
a(dp975
g2
S'LIST'
p976
sg4
S'260.1'
p977
sa(dp978
g2
S'FACTOID'
p979
sg4
S'260.2'
p980
sa(dp981
g2
S'FACTOID'
p982
sg4
S'260.3'
p983
sa(dp984
g2
S'FACTOID'
p985
sg4
S'260.4'
p986
sa(dp987
g2
S'FACTOID'
p988
sg4
S'260.5'
p989
sa(dp990
g2
S'FACTOID'
p991
sg4
S'260.6'
p992
sa(dp993
g2
S'FACTOID'
p994
sg4
S'260.7'
p995
sa(dp996
g2
S'OTHER'
p997
sg4
S'260.8'
p998
sag975
ag978
ag981
ag984
ag987
ag990
ag993
ag996
ag975
ag978
ag981
ag984
ag987
ag990
ag993
ag996
ag975
ag978
ag981
ag984
ag987
ag990
ag993
ag996
ag975
ag978
ag981
ag984
ag987
ag990
ag993
ag996
ag975
ag978
ag981
ag984
ag987
ag990
ag993
ag996
ag975
ag978
ag981
ag984
ag987
ag990
ag993
ag996
ag975
ag978
ag981
ag984
ag987
ag990
ag993
ag996
a(dp999
g2
S'FACTOID'
p1000
sg4
S'261.1'
p1001
sa(dp1002
g2
S'LIST'
p1003
sg4
S'261.2'
p1004
sa(dp1005
g2
S'FACTOID'
p1006
sg4
S'261.3'
p1007
sa(dp1008
g2
S'FACTOID'
p1009
sg4
S'261.4'
p1010
sa(dp1011
g2
S'FACTOID'
p1012
sg4
S'261.5'
p1013
sa(dp1014
g2
S'FACTOID'
p1015
sg4
S'261.6'
p1016
sa(dp1017
g2
S'FACTOID'
p1018
sg4
S'261.7'
p1019
sa(dp1020
g2
S'OTHER'
p1021
sg4
S'261.8'
p1022
sag999
ag1002
ag1005
ag1008
ag1011
ag1014
ag1017
ag1020
ag999
ag1002
ag1005
ag1008
ag1011
ag1014
ag1017
ag1020
ag999
ag1002
ag1005
ag1008
ag1011
ag1014
ag1017
ag1020
ag999
ag1002
ag1005
ag1008
ag1011
ag1014
ag1017
ag1020
ag999
ag1002
ag1005
ag1008
ag1011
ag1014
ag1017
ag1020
ag999
ag1002
ag1005
ag1008
ag1011
ag1014
ag1017
ag1020
ag999
ag1002
ag1005
ag1008
ag1011
ag1014
ag1017
ag1020
a(dp1023
g2
S'FACTOID'
p1024
sg4
S'262.1'
p1025
sa(dp1026
g2
S'FACTOID'
p1027
sg4
S'262.2'
p1028
sa(dp1029
g2
S'FACTOID'
p1030
sg4
S'262.3'
p1031
sa(dp1032
g2
S'FACTOID'
p1033
sg4
S'262.4'
p1034
sa(dp1035
g2
S'LIST'
p1036
sg4
S'262.5'
p1037
sa(dp1038
g2
S'FACTOID'
p1039
sg4
S'262.6'
p1040
sa(dp1041
g2
S'FACTOID'
p1042
sg4
S'262.7'
p1043
sa(dp1044
g2
S'OTHER'
p1045
sg4
S'262.8'
p1046
sag1023
ag1026
ag1029
ag1032
ag1035
ag1038
ag1041
ag1044
ag1023
ag1026
ag1029
ag1032
ag1035
ag1038
ag1041
ag1044
ag1023
ag1026
ag1029
ag1032
ag1035
ag1038
ag1041
ag1044
ag1023
ag1026
ag1029
ag1032
ag1035
ag1038
ag1041
ag1044
ag1023
ag1026
ag1029
ag1032
ag1035
ag1038
ag1041
ag1044
ag1023
ag1026
ag1029
ag1032
ag1035
ag1038
ag1041
ag1044
ag1023
ag1026
ag1029
ag1032
ag1035
ag1038
ag1041
ag1044
a(dp1047
g2
S'FACTOID'
p1048
sg4
S'263.1'
p1049
sa(dp1050
g2
S'FACTOID'
p1051
sg4
S'263.2'
p1052
sa(dp1053
g2
S'FACTOID'
p1054
sg4
S'263.3'
p1055
sa(dp1056
g2
S'FACTOID'
p1057
sg4
S'263.4'
p1058
sa(dp1059
g2
S'LIST'
p1060
sg4
S'263.5'
p1061
sa(dp1062
g2
S'LIST'
p1063
sg4
S'263.6'
p1064
sa(dp1065
g2
S'FACTOID'
p1066
sg4
S'263.7'
p1067
sa(dp1068
g2
S'FACTOID'
p1069
sg4
S'263.8'
p1070
sa(dp1071
g2
S'OTHER'
p1072
sg4
S'263.9'
p1073
sag1047
ag1050
ag1053
ag1056
ag1059
ag1062
ag1065
ag1068
ag1071
ag1047
ag1050
ag1053
ag1056
ag1059
ag1062
ag1065
ag1068
ag1071
ag1047
ag1050
ag1053
ag1056
ag1059
ag1062
ag1065
ag1068
ag1071
ag1047
ag1050
ag1053
ag1056
ag1059
ag1062
ag1065
ag1068
ag1071
ag1047
ag1050
ag1053
ag1056
ag1059
ag1062
ag1065
ag1068
ag1071
ag1047
ag1050
ag1053
ag1056
ag1059
ag1062
ag1065
ag1068
ag1071
ag1047
ag1050
ag1053
ag1056
ag1059
ag1062
ag1065
ag1068
ag1071
ag1047
ag1050
ag1053
ag1056
ag1059
ag1062
ag1065
ag1068
ag1071
a(dp1074
g2
S'FACTOID'
p1075
sg4
S'264.1'
p1076
sa(dp1077
g2
S'FACTOID'
p1078
sg4
S'264.2'
p1079
sa(dp1080
g2
S'FACTOID'
p1081
sg4
S'264.3'
p1082
sa(dp1083
g2
S'FACTOID'
p1084
sg4
S'264.4'
p1085
sa(dp1086
g2
S'FACTOID'
p1087
sg4
S'264.5'
p1088
sa(dp1089
g2
S'FACTOID'
p1090
sg4
S'264.6'
p1091
sa(dp1092
g2
S'FACTOID'
p1093
sg4
S'264.7'
p1094
sa(dp1095
g2
S'FACTOID'
p1096
sg4
S'264.8'
p1097
sa(dp1098
g2
S'LIST'
p1099
sg4
S'264.9'
p1100
sa(dp1101
g2
S'OTHER'
p1102
sg4
S'264.10'
p1103
sag1074
ag1077
ag1080
ag1083
ag1086
ag1089
ag1092
ag1095
ag1098
ag1101
ag1074
ag1077
ag1080
ag1083
ag1086
ag1089
ag1092
ag1095
ag1098
ag1101
ag1074
ag1077
ag1080
ag1083
ag1086
ag1089
ag1092
ag1095
ag1098
ag1101
ag1074
ag1077
ag1080
ag1083
ag1086
ag1089
ag1092
ag1095
ag1098
ag1101
ag1074
ag1077
ag1080
ag1083
ag1086
ag1089
ag1092
ag1095
ag1098
ag1101
ag1074
ag1077
ag1080
ag1083
ag1086
ag1089
ag1092
ag1095
ag1098
ag1101
ag1074
ag1077
ag1080
ag1083
ag1086
ag1089
ag1092
ag1095
ag1098
ag1101
ag1074
ag1077
ag1080
ag1083
ag1086
ag1089
ag1092
ag1095
ag1098
ag1101
ag1074
ag1077
ag1080
ag1083
ag1086
ag1089
ag1092
ag1095
ag1098
ag1101
a(dp1104
g2
S'FACTOID'
p1105
sg4
S'265.1'
p1106
sa(dp1107
g2
S'FACTOID'
p1108
sg4
S'265.2'
p1109
sa(dp1110
g2
S'FACTOID'
p1111
sg4
S'265.3'
p1112
sa(dp1113
g2
S'FACTOID'
p1114
sg4
S'265.4'
p1115
sa(dp1116
g2
S'LIST'
p1117
sg4
S'265.5'
p1118
sa(dp1119
g2
S'LIST'
p1120
sg4
S'265.6'
p1121
sa(dp1122
g2
S'OTHER'
p1123
sg4
S'265.7'
p1124
sag1104
ag1107
ag1110
ag1113
ag1116
ag1119
ag1122
ag1104
ag1107
ag1110
ag1113
ag1116
ag1119
ag1122
ag1104
ag1107
ag1110
ag1113
ag1116
ag1119
ag1122
ag1104
ag1107
ag1110
ag1113
ag1116
ag1119
ag1122
ag1104
ag1107
ag1110
ag1113
ag1116
ag1119
ag1122
ag1104
ag1107
ag1110
ag1113
ag1116
ag1119
ag1122
a(dp1125
g2
S'FACTOID'
p1126
sg4
S'266.1'
p1127
sa(dp1128
g2
S'FACTOID'
p1129
sg4
S'266.2'
p1130
sa(dp1131
g2
S'FACTOID'
p1132
sg4
S'266.3'
p1133
sa(dp1134
g2
S'FACTOID'
p1135
sg4
S'266.4'
p1136
sa(dp1137
g2
S'FACTOID'
p1138
sg4
S'266.5'
p1139
sa(dp1140
g2
S'FACTOID'
p1141
sg4
S'266.6'
p1142
sa(dp1143
g2
S'FACTOID'
p1144
sg4
S'266.7'
p1145
sa(dp1146
g2
S'FACTOID'
p1147
sg4
S'266.8'
p1148
sa(dp1149
g2
S'LIST'
p1150
sg4
S'266.9'
p1151
sa(dp1152
g2
S'OTHER'
p1153
sg4
S'266.10'
p1154
sag1125
ag1128
ag1131
ag1134
ag1137
ag1140
ag1143
ag1146
ag1149
ag1152
ag1125
ag1128
ag1131
ag1134
ag1137
ag1140
ag1143
ag1146
ag1149
ag1152
ag1125
ag1128
ag1131
ag1134
ag1137
ag1140
ag1143
ag1146
ag1149
ag1152
ag1125
ag1128
ag1131
ag1134
ag1137
ag1140
ag1143
ag1146
ag1149
ag1152
ag1125
ag1128
ag1131
ag1134
ag1137
ag1140
ag1143
ag1146
ag1149
ag1152
ag1125
ag1128
ag1131
ag1134
ag1137
ag1140
ag1143
ag1146
ag1149
ag1152
ag1125
ag1128
ag1131
ag1134
ag1137
ag1140
ag1143
ag1146
ag1149
ag1152
ag1125
ag1128
ag1131
ag1134
ag1137
ag1140
ag1143
ag1146
ag1149
ag1152
ag1125
ag1128
ag1131
ag1134
ag1137
ag1140
ag1143
ag1146
ag1149
ag1152
a(dp1155
g2
S'FACTOID'
p1156
sg4
S'267.1'
p1157
sa(dp1158
g2
S'FACTOID'
p1159
sg4
S'267.2'
p1160
sa(dp1161
g2
S'FACTOID'
p1162
sg4
S'267.3'
p1163
sa(dp1164
g2
S'FACTOID'
p1165
sg4
S'267.4'
p1166
sa(dp1167
g2
S'FACTOID'
p1168
sg4
S'267.5'
p1169
sa(dp1170
g2
S'LIST'
p1171
sg4
S'267.6'
p1172
sa(dp1173
g2
S'OTHER'
p1174
sg4
S'267.7'
p1175
sag1155
ag1158
ag1161
ag1164
ag1167
ag1170
ag1173
ag1155
ag1158
ag1161
ag1164
ag1167
ag1170
ag1173
ag1155
ag1158
ag1161
ag1164
ag1167
ag1170
ag1173
ag1155
ag1158
ag1161
ag1164
ag1167
ag1170
ag1173
ag1155
ag1158
ag1161
ag1164
ag1167
ag1170
ag1173
ag1155
ag1158
ag1161
ag1164
ag1167
ag1170
ag1173
a(dp1176
g2
S'FACTOID'
p1177
sg4
S'268.1'
p1178
sa(dp1179
g2
S'FACTOID'
p1180
sg4
S'268.2'
p1181
sa(dp1182
g2
S'FACTOID'
p1183
sg4
S'268.3'
p1184
sa(dp1185
g2
S'FACTOID'
p1186
sg4
S'268.4'
p1187
sa(dp1188
g2
S'LIST'
p1189
sg4
S'268.5'
p1190
sa(dp1191
g2
S'FACTOID'
p1192
sg4
S'268.6'
p1193
sa(dp1194
g2
S'LIST'
p1195
sg4
S'268.7'
p1196
sa(dp1197
g2
S'OTHER'
p1198
sg4
S'268.8'
p1199
sag1176
ag1179
ag1182
ag1185
ag1188
ag1191
ag1194
ag1197
ag1176
ag1179
ag1182
ag1185
ag1188
ag1191
ag1194
ag1197
ag1176
ag1179
ag1182
ag1185
ag1188
ag1191
ag1194
ag1197
ag1176
ag1179
ag1182
ag1185
ag1188
ag1191
ag1194
ag1197
ag1176
ag1179
ag1182
ag1185
ag1188
ag1191
ag1194
ag1197
ag1176
ag1179
ag1182
ag1185
ag1188
ag1191
ag1194
ag1197
ag1176
ag1179
ag1182
ag1185
ag1188
ag1191
ag1194
ag1197
a(dp1200
g2
S'FACTOID'
p1201
sg4
S'269.1'
p1202
sa(dp1203
g2
S'LIST'
p1204
sg4
S'269.2'
p1205
sa(dp1206
g2
S'FACTOID'
p1207
sg4
S'269.3'
p1208
sa(dp1209
g2
S'FACTOID'
p1210
sg4
S'269.4'
p1211
sa(dp1212
g2
S'FACTOID'
p1213
sg4
S'269.5'
p1214
sa(dp1215
g2
S'LIST'
p1216
sg4
S'269.6'
p1217
sa(dp1218
g2
S'OTHER'
p1219
sg4
S'269.7'
p1220
sag1200
ag1203
ag1206
ag1209
ag1212
ag1215
ag1218
ag1200
ag1203
ag1206
ag1209
ag1212
ag1215
ag1218
ag1200
ag1203
ag1206
ag1209
ag1212
ag1215
ag1218
ag1200
ag1203
ag1206
ag1209
ag1212
ag1215
ag1218
ag1200
ag1203
ag1206
ag1209
ag1212
ag1215
ag1218
ag1200
ag1203
ag1206
ag1209
ag1212
ag1215
ag1218
a(dp1221
g2
S'FACTOID'
p1222
sg4
S'270.1'
p1223
sa(dp1224
g2
S'FACTOID'
p1225
sg4
S'270.2'
p1226
sa(dp1227
g2
S'FACTOID'
p1228
sg4
S'270.3'
p1229
sa(dp1230
g2
S'FACTOID'
p1231
sg4
S'270.4'
p1232
sa(dp1233
g2
S'FACTOID'
p1234
sg4
S'270.5'
p1235
sa(dp1236
g2
S'LIST'
p1237
sg4
S'270.6'
p1238
sa(dp1239
g2
S'OTHER'
p1240
sg4
S'270.7'
p1241
sag1221
ag1224
ag1227
ag1230
ag1233
ag1236
ag1239
ag1221
ag1224
ag1227
ag1230
ag1233
ag1236
ag1239
ag1221
ag1224
ag1227
ag1230
ag1233
ag1236
ag1239
ag1221
ag1224
ag1227
ag1230
ag1233
ag1236
ag1239
ag1221
ag1224
ag1227
ag1230
ag1233
ag1236
ag1239
ag1221
ag1224
ag1227
ag1230
ag1233
ag1236
ag1239
a(dp1242
g2
S'FACTOID'
p1243
sg4
S'271.1'
p1244
sa(dp1245
g2
S'FACTOID'
p1246
sg4
S'271.2'
p1247
sa(dp1248
g2
S'FACTOID'
p1249
sg4
S'271.3'
p1250
sa(dp1251
g2
S'LIST'
p1252
sg4
S'271.4'
p1253
sa(dp1254
g2
S'FACTOID'
p1255
sg4
S'271.5'
p1256
sa(dp1257
g2
S'FACTOID'
p1258
sg4
S'271.6'
p1259
sa(dp1260
g2
S'OTHER'
p1261
sg4
S'271.7'
p1262
sag1242
ag1245
ag1248
ag1251
ag1254
ag1257
ag1260
ag1242
ag1245
ag1248
ag1251
ag1254
ag1257
ag1260
ag1242
ag1245
ag1248
ag1251
ag1254
ag1257
ag1260
ag1242
ag1245
ag1248
ag1251
ag1254
ag1257
ag1260
ag1242
ag1245
ag1248
ag1251
ag1254
ag1257
ag1260
ag1242
ag1245
ag1248
ag1251
ag1254
ag1257
ag1260
a(dp1263
g2
S'FACTOID'
p1264
sg4
S'272.1'
p1265
sa(dp1266
g2
S'FACTOID'
p1267
sg4
S'272.2'
p1268
sa(dp1269
g2
S'FACTOID'
p1270
sg4
S'272.3'
p1271
sa(dp1272
g2
S'FACTOID'
p1273
sg4
S'272.4'
p1274
sa(dp1275
g2
S'FACTOID'
p1276
sg4
S'272.5'
p1277
sa(dp1278
g2
S'LIST'
p1279
sg4
S'272.6'
p1280
sa(dp1281
g2
S'OTHER'
p1282
sg4
S'272.7'
p1283
sag1263
ag1266
ag1269
ag1272
ag1275
ag1278
ag1281
ag1263
ag1266
ag1269
ag1272
ag1275
ag1278
ag1281
ag1263
ag1266
ag1269
ag1272
ag1275
ag1278
ag1281
ag1263
ag1266
ag1269
ag1272
ag1275
ag1278
ag1281
ag1263
ag1266
ag1269
ag1272
ag1275
ag1278
ag1281
ag1263
ag1266
ag1269
ag1272
ag1275
ag1278
ag1281
a(dp1284
g2
S'FACTOID'
p1285
sg4
S'273.1'
p1286
sa(dp1287
g2
S'FACTOID'
p1288
sg4
S'273.2'
p1289
sa(dp1290
g2
S'FACTOID'
p1291
sg4
S'273.3'
p1292
sa(dp1293
g2
S'FACTOID'
p1294
sg4
S'273.4'
p1295
sa(dp1296
g2
S'LIST'
p1297
sg4
S'273.5'
p1298
sa(dp1299
g2
S'LIST'
p1300
sg4
S'273.6'
p1301
sa(dp1302
g2
S'OTHER'
p1303
sg4
S'273.7'
p1304
sag1284
ag1287
ag1290
ag1293
ag1296
ag1299
ag1302
ag1284
ag1287
ag1290
ag1293
ag1296
ag1299
ag1302
ag1284
ag1287
ag1290
ag1293
ag1296
ag1299
ag1302
ag1284
ag1287
ag1290
ag1293
ag1296
ag1299
ag1302
ag1284
ag1287
ag1290
ag1293
ag1296
ag1299
ag1302
ag1284
ag1287
ag1290
ag1293
ag1296
ag1299
ag1302
a(dp1305
g2
S'FACTOID'
p1306
sg4
S'274.1'
p1307
sa(dp1308
g2
S'FACTOID'
p1309
sg4
S'274.2'
p1310
sa(dp1311
g2
S'FACTOID'
p1312
sg4
S'274.3'
p1313
sa(dp1314
g2
S'LIST'
p1315
sg4
S'274.4'
p1316
sa(dp1317
g2
S'FACTOID'
p1318
sg4
S'274.5'
p1319
sa(dp1320
g2
S'FACTOID'
p1321
sg4
S'274.6'
p1322
sa(dp1323
g2
S'FACTOID'
p1324
sg4
S'274.7'
p1325
sa(dp1326
g2
S'OTHER'
p1327
sg4
S'274.8'
p1328
sag1305
ag1308
ag1311
ag1314
ag1317
ag1320
ag1323
ag1326
ag1305
ag1308
ag1311
ag1314
ag1317
ag1320
ag1323
ag1326
ag1305
ag1308
ag1311
ag1314
ag1317
ag1320
ag1323
ag1326
ag1305
ag1308
ag1311
ag1314
ag1317
ag1320
ag1323
ag1326
ag1305
ag1308
ag1311
ag1314
ag1317
ag1320
ag1323
ag1326
ag1305
ag1308
ag1311
ag1314
ag1317
ag1320
ag1323
ag1326
ag1305
ag1308
ag1311
ag1314
ag1317
ag1320
ag1323
ag1326
a(dp1329
g2
S'FACTOID'
p1330
sg4
S'275.1'
p1331
sa(dp1332
g2
S'LIST'
p1333
sg4
S'275.2'
p1334
sa(dp1335
g2
S'FACTOID'
p1336
sg4
S'275.3'
p1337
sa(dp1338
g2
S'FACTOID'
p1339
sg4
S'275.4'
p1340
sa(dp1341
g2
S'LIST'
p1342
sg4
S'275.5'
p1343
sa(dp1344
g2
S'OTHER'
p1345
sg4
S'275.6'
p1346
sag1329
ag1332
ag1335
ag1338
ag1341
ag1344
ag1329
ag1332
ag1335
ag1338
ag1341
ag1344
ag1329
ag1332
ag1335
ag1338
ag1341
ag1344
ag1329
ag1332
ag1335
ag1338
ag1341
ag1344
ag1329
ag1332
ag1335
ag1338
ag1341
ag1344
a(dp1347
g2
S'FACTOID'
p1348
sg4
S'276.1'
p1349
sa(dp1350
g2
S'FACTOID'
p1351
sg4
S'276.2'
p1352
sa(dp1353
g2
S'FACTOID'
p1354
sg4
S'276.3'
p1355
sa(dp1356
g2
S'LIST'
p1357
sg4
S'276.4'
p1358
sa(dp1359
g2
S'FACTOID'
p1360
sg4
S'276.5'
p1361
sa(dp1362
g2
S'OTHER'
p1363
sg4
S'276.6'
p1364
sag1347
ag1350
ag1353
ag1356
ag1359
ag1362
ag1347
ag1350
ag1353
ag1356
ag1359
ag1362
ag1347
ag1350
ag1353
ag1356
ag1359
ag1362
ag1347
ag1350
ag1353
ag1356
ag1359
ag1362
ag1347
ag1350
ag1353
ag1356
ag1359
ag1362
a(dp1365
g2
S'FACTOID'
p1366
sg4
S'277.1'
p1367
sa(dp1368
g2
S'FACTOID'
p1369
sg4
S'277.2'
p1370
sa(dp1371
g2
S'FACTOID'
p1372
sg4
S'277.3'
p1373
sa(dp1374
g2
S'FACTOID'
p1375
sg4
S'277.4'
p1376
sa(dp1377
g2
S'LIST'
p1378
sg4
S'277.5'
p1379
sa(dp1380
g2
S'FACTOID'
p1381
sg4
S'277.6'
p1382
sa(dp1383
g2
S'OTHER'
p1384
sg4
S'277.7'
p1385
sag1365
ag1368
ag1371
ag1374
ag1377
ag1380
ag1383
ag1365
ag1368
ag1371
ag1374
ag1377
ag1380
ag1383
ag1365
ag1368
ag1371
ag1374
ag1377
ag1380
ag1383
ag1365
ag1368
ag1371
ag1374
ag1377
ag1380
ag1383
ag1365
ag1368
ag1371
ag1374
ag1377
ag1380
ag1383
ag1365
ag1368
ag1371
ag1374
ag1377
ag1380
ag1383
a(dp1386
g2
S'FACTOID'
p1387
sg4
S'278.1'
p1388
sa(dp1389
g2
S'FACTOID'
p1390
sg4
S'278.2'
p1391
sa(dp1392
g2
S'FACTOID'
p1393
sg4
S'278.3'
p1394
sa(dp1395
g2
S'FACTOID'
p1396
sg4
S'278.4'
p1397
sa(dp1398
g2
S'LIST'
p1399
sg4
S'278.5'
p1400
sa(dp1401
g2
S'FACTOID'
p1402
sg4
S'278.6'
p1403
sa(dp1404
g2
S'OTHER'
p1405
sg4
S'278.7'
p1406
sag1386
ag1389
ag1392
ag1395
ag1398
ag1401
ag1404
ag1386
ag1389
ag1392
ag1395
ag1398
ag1401
ag1404
ag1386
ag1389
ag1392
ag1395
ag1398
ag1401
ag1404
ag1386
ag1389
ag1392
ag1395
ag1398
ag1401
ag1404
ag1386
ag1389
ag1392
ag1395
ag1398
ag1401
ag1404
ag1386
ag1389
ag1392
ag1395
ag1398
ag1401
ag1404
a(dp1407
g2
S'FACTOID'
p1408
sg4
S'279.1'
p1409
sa(dp1410
g2
S'FACTOID'
p1411
sg4
S'279.2'
p1412
sa(dp1413
g2
S'FACTOID'
p1414
sg4
S'279.3'
p1415
sa(dp1416
g2
S'FACTOID'
p1417
sg4
S'279.4'
p1418
sa(dp1419
g2
S'LIST'
p1420
sg4
S'279.5'
p1421
sa(dp1422
g2
S'OTHER'
p1423
sg4
S'279.6'
p1424
sag1407
ag1410
ag1413
ag1416
ag1419
ag1422
ag1407
ag1410
ag1413
ag1416
ag1419
ag1422
ag1407
ag1410
ag1413
ag1416
ag1419
ag1422
ag1407
ag1410
ag1413
ag1416
ag1419
ag1422
ag1407
ag1410
ag1413
ag1416
ag1419
ag1422
a(dp1425
g2
S'FACTOID'
p1426
sg4
S'280.1'
p1427
sa(dp1428
g2
S'FACTOID'
p1429
sg4
S'280.2'
p1430
sa(dp1431
g2
S'FACTOID'
p1432
sg4
S'280.3'
p1433
sa(dp1434
g2
S'LIST'
p1435
sg4
S'280.4'
p1436
sa(dp1437
g2
S'FACTOID'
p1438
sg4
S'280.5'
p1439
sa(dp1440
g2
S'FACTOID'
p1441
sg4
S'280.6'
p1442
sa(dp1443
g2
S'OTHER'
p1444
sg4
S'280.7'
p1445
sag1425
ag1428
ag1431
ag1434
ag1437
ag1440
ag1443
ag1425
ag1428
ag1431
ag1434
ag1437
ag1440
ag1443
ag1425
ag1428
ag1431
ag1434
ag1437
ag1440
ag1443
ag1425
ag1428
ag1431
ag1434
ag1437
ag1440
ag1443
ag1425
ag1428
ag1431
ag1434
ag1437
ag1440
ag1443
ag1425
ag1428
ag1431
ag1434
ag1437
ag1440
ag1443
a(dp1446
g2
S'FACTOID'
p1447
sg4
S'281.1'
p1448
sa(dp1449
g2
S'FACTOID'
p1450
sg4
S'281.2'
p1451
sa(dp1452
g2
S'FACTOID'
p1453
sg4
S'281.3'
p1454
sa(dp1455
g2
S'FACTOID'
p1456
sg4
S'281.4'
p1457
sa(dp1458
g2
S'LIST'
p1459
sg4
S'281.5'
p1460
sa(dp1461
g2
S'FACTOID'
p1462
sg4
S'281.6'
p1463
sa(dp1464
g2
S'OTHER'
p1465
sg4
S'281.7'
p1466
sag1446
ag1449
ag1452
ag1455
ag1458
ag1461
ag1464
ag1446
ag1449
ag1452
ag1455
ag1458
ag1461
ag1464
ag1446
ag1449
ag1452
ag1455
ag1458
ag1461
ag1464
ag1446
ag1449
ag1452
ag1455
ag1458
ag1461
ag1464
ag1446
ag1449
ag1452
ag1455
ag1458
ag1461
ag1464
ag1446
ag1449
ag1452
ag1455
ag1458
ag1461
ag1464
a(dp1467
g2
S'FACTOID'
p1468
sg4
S'282.1'
p1469
sa(dp1470
g2
S'FACTOID'
p1471
sg4
S'282.2'
p1472
sa(dp1473
g2
S'FACTOID'
p1474
sg4
S'282.3'
p1475
sa(dp1476
g2
S'LIST'
p1477
sg4
S'282.4'
p1478
sa(dp1479
g2
S'LIST'
p1480
sg4
S'282.5'
p1481
sa(dp1482
g2
S'FACTOID'
p1483
sg4
S'282.6'
p1484
sa(dp1485
g2
S'OTHER'
p1486
sg4
S'282.7'
p1487
sag1467
ag1470
ag1473
ag1476
ag1479
ag1482
ag1485
ag1467
ag1470
ag1473
ag1476
ag1479
ag1482
ag1485
ag1467
ag1470
ag1473
ag1476
ag1479
ag1482
ag1485
ag1467
ag1470
ag1473
ag1476
ag1479
ag1482
ag1485
ag1467
ag1470
ag1473
ag1476
ag1479
ag1482
ag1485
ag1467
ag1470
ag1473
ag1476
ag1479
ag1482
ag1485
a(dp1488
g2
S'FACTOID'
p1489
sg4
S'283.1'
p1490
sa(dp1491
g2
S'FACTOID'
p1492
sg4
S'283.2'
p1493
sa(dp1494
g2
S'FACTOID'
p1495
sg4
S'283.3'
p1496
sa(dp1497
g2
S'FACTOID'
p1498
sg4
S'283.4'
p1499
sa(dp1500
g2
S'FACTOID'
p1501
sg4
S'283.5'
p1502
sa(dp1503
g2
S'LIST'
p1504
sg4
S'283.6'
p1505
sa(dp1506
g2
S'OTHER'
p1507
sg4
S'283.7'
p1508
sag1488
ag1491
ag1494
ag1497
ag1500
ag1503
ag1506
ag1488
ag1491
ag1494
ag1497
ag1500
ag1503
ag1506
ag1488
ag1491
ag1494
ag1497
ag1500
ag1503
ag1506
ag1488
ag1491
ag1494
ag1497
ag1500
ag1503
ag1506
ag1488
ag1491
ag1494
ag1497
ag1500
ag1503
ag1506
ag1488
ag1491
ag1494
ag1497
ag1500
ag1503
ag1506
a(dp1509
g2
S'FACTOID'
p1510
sg4
S'284.1'
p1511
sa(dp1512
g2
S'FACTOID'
p1513
sg4
S'284.2'
p1514
sa(dp1515
g2
S'FACTOID'
p1516
sg4
S'284.3'
p1517
sa(dp1518
g2
S'FACTOID'
p1519
sg4
S'284.4'
p1520
sa(dp1521
g2
S'FACTOID'
p1522
sg4
S'284.5'
p1523
sa(dp1524
g2
S'LIST'
p1525
sg4
S'284.6'
p1526
sa(dp1527
g2
S'OTHER'
p1528
sg4
S'284.7'
p1529
sag1509
ag1512
ag1515
ag1518
ag1521
ag1524
ag1527
ag1509
ag1512
ag1515
ag1518
ag1521
ag1524
ag1527
ag1509
ag1512
ag1515
ag1518
ag1521
ag1524
ag1527
ag1509
ag1512
ag1515
ag1518
ag1521
ag1524
ag1527
ag1509
ag1512
ag1515
ag1518
ag1521
ag1524
ag1527
ag1509
ag1512
ag1515
ag1518
ag1521
ag1524
ag1527
a(dp1530
g2
S'FACTOID'
p1531
sg4
S'285.1'
p1532
sa(dp1533
g2
S'LIST'
p1534
sg4
S'285.2'
p1535
sa(dp1536
g2
S'FACTOID'
p1537
sg4
S'285.3'
p1538
sa(dp1539
g2
S'FACTOID'
p1540
sg4
S'285.4'
p1541
sa(dp1542
g2
S'LIST'
p1543
sg4
S'285.5'
p1544
sa(dp1545
g2
S'OTHER'
p1546
sg4
S'285.6'
p1547
sag1530
ag1533
ag1536
ag1539
ag1542
ag1545
ag1530
ag1533
ag1536
ag1539
ag1542
ag1545
ag1530
ag1533
ag1536
ag1539
ag1542
ag1545
ag1530
ag1533
ag1536
ag1539
ag1542
ag1545
ag1530
ag1533
ag1536
ag1539
ag1542
ag1545
a.