(lp0
S'For which newspaper does Krugman write?'
p1
aS'At which university does Krugman teach?'
p2
aS'From which university did he receive his doctorate?'
p3
aS"What is Krugman's academic specialty?"
p4
aS'What prize originating in Spain has Krugman won?'
p5
aS'What are titles of books written by Krugman?'
p6
aS'What persons has Krugman criticized in his op-ed columns?'
p7
aS'Other'
p8
aS'For which newspaper does Krugman write?'
p9
aS'At which university does Krugman teach?'
p10
aS'From which university did he receive his doctorate?'
p11
aS"What is Krugman's academic specialty?"
p12
aS'What prize originating in Spain has Krugman won?'
p13
aS'What are titles of books written by Krugman?'
p14
aS'What persons has Krugman criticized in his op-ed columns?'
p15
aS'Other'
p16
aS'For which newspaper does Krugman write?'
p17
aS'At which university does Krugman teach?'
p18
aS'From which university did he receive his doctorate?'
p19
aS"What is Krugman's academic specialty?"
p20
aS'What prize originating in Spain has Krugman won?'
p21
aS'What are titles of books written by Krugman?'
p22
aS'What persons has Krugman criticized in his op-ed columns?'
p23
aS'Other'
p24
aS'For which newspaper does Krugman write?'
p25
aS'At which university does Krugman teach?'
p26
aS'From which university did he receive his doctorate?'
p27
aS"What is Krugman's academic specialty?"
p28
aS'What prize originating in Spain has Krugman won?'
p29
aS'What are titles of books written by Krugman?'
p30
aS'What persons has Krugman criticized in his op-ed columns?'
p31
aS'Other'
p32
aS'For which newspaper does Krugman write?'
p33
aS'At which university does Krugman teach?'
p34
aS'From which university did he receive his doctorate?'
p35
aS"What is Krugman's academic specialty?"
p36
aS'What prize originating in Spain has Krugman won?'
p37
aS'What are titles of books written by Krugman?'
p38
aS'What persons has Krugman criticized in his op-ed columns?'
p39
aS'Other'
p40
aS'For which newspaper does Krugman write?'
p41
aS'At which university does Krugman teach?'
p42
aS'From which university did he receive his doctorate?'
p43
aS"What is Krugman's academic specialty?"
p44
aS'What prize originating in Spain has Krugman won?'
p45
aS'What are titles of books written by Krugman?'
p46
aS'What persons has Krugman criticized in his op-ed columns?'
p47
aS'Other'
p48
aS'For which newspaper does Krugman write?'
p49
aS'At which university does Krugman teach?'
p50
aS'From which university did he receive his doctorate?'
p51
aS"What is Krugman's academic specialty?"
p52
aS'What prize originating in Spain has Krugman won?'
p53
aS'What are titles of books written by Krugman?'
p54
aS'What persons has Krugman criticized in his op-ed columns?'
p55
aS'Other'
p56
aS'For which newspaper does Krugman write?'
p57
aS'At which university does Krugman teach?'
p58
aS'From which university did he receive his doctorate?'
p59
aS"What is Krugman's academic specialty?"
p60
aS'What prize originating in Spain has Krugman won?'
p61
aS'What are titles of books written by Krugman?'
p62
aS'What persons has Krugman criticized in his op-ed columns?'
p63
aS'Other'
p64
aS'What company produces his records?'
p65
aS'What is his real name?'
p66
aS'Who is he planning to marry?'
p67
aS'Which company is he president of?'
p68
aS'Where did he grow up?'
p69
aS'What are titles of albums featuring Jay-Z?'
p70
aS'Other'
p71
aS'What company produces his records?'
p72
aS'What is his real name?'
p73
aS'Who is he planning to marry?'
p74
aS'Which company is he president of?'
p75
aS'Where did he grow up?'
p76
aS'What are titles of albums featuring Jay-Z?'
p77
aS'Other'
p78
aS'What company produces his records?'
p79
aS'What is his real name?'
p80
aS'Who is he planning to marry?'
p81
aS'Which company is he president of?'
p82
aS'Where did he grow up?'
p83
aS'What are titles of albums featuring Jay-Z?'
p84
aS'Other'
p85
aS'What company produces his records?'
p86
aS'What is his real name?'
p87
aS'Who is he planning to marry?'
p88
aS'Which company is he president of?'
p89
aS'Where did he grow up?'
p90
aS'What are titles of albums featuring Jay-Z?'
p91
aS'Other'
p92
aS'What company produces his records?'
p93
aS'What is his real name?'
p94
aS'Who is he planning to marry?'
p95
aS'Which company is he president of?'
p96
aS'Where did he grow up?'
p97
aS'What are titles of albums featuring Jay-Z?'
p98
aS'Other'
p99
aS'What company produces his records?'
p100
aS'What is his real name?'
p101
aS'Who is he planning to marry?'
p102
aS'Which company is he president of?'
p103
aS'Where did he grow up?'
p104
aS'What are titles of albums featuring Jay-Z?'
p105
aS'Other'
p106
aS'What company produces his records?'
p107
aS'What is his real name?'
p108
aS'Who is he planning to marry?'
p109
aS'Which company is he president of?'
p110
aS'Where did he grow up?'
p111
aS'What are titles of albums featuring Jay-Z?'
p112
aS'Other'
p113
aS'How old is Darrell Hammond?'
p114
aS'From which university did he graduate?'
p115
aS'What is his annual income?'
p116
aS'On what TV show does Hammond regularly appear?'
p117
aS'His shows appear on which network?'
p118
aS'On what Comedy Central program was Hammond featured?'
p119
aS'Which people has he impersonated?'
p120
aS'Other'
p121
aS'How old is Darrell Hammond?'
p122
aS'From which university did he graduate?'
p123
aS'What is his annual income?'
p124
aS'On what TV show does Hammond regularly appear?'
p125
aS'His shows appear on which network?'
p126
aS'On what Comedy Central program was Hammond featured?'
p127
aS'Which people has he impersonated?'
p128
aS'Other'
p129
aS'How old is Darrell Hammond?'
p130
aS'From which university did he graduate?'
p131
aS'What is his annual income?'
p132
aS'On what TV show does Hammond regularly appear?'
p133
aS'His shows appear on which network?'
p134
aS'On what Comedy Central program was Hammond featured?'
p135
aS'Which people has he impersonated?'
p136
aS'Other'
p137
aS'How old is Darrell Hammond?'
p138
aS'From which university did he graduate?'
p139
aS'What is his annual income?'
p140
aS'On what TV show does Hammond regularly appear?'
p141
aS'His shows appear on which network?'
p142
aS'On what Comedy Central program was Hammond featured?'
p143
aS'Which people has he impersonated?'
p144
aS'Other'
p145
aS'How old is Darrell Hammond?'
p146
aS'From which university did he graduate?'
p147
aS'What is his annual income?'
p148
aS'On what TV show does Hammond regularly appear?'
p149
aS'His shows appear on which network?'
p150
aS'On what Comedy Central program was Hammond featured?'
p151
aS'Which people has he impersonated?'
p152
aS'Other'
p153
aS'How old is Darrell Hammond?'
p154
aS'From which university did he graduate?'
p155
aS'What is his annual income?'
p156
aS'On what TV show does Hammond regularly appear?'
p157
aS'His shows appear on which network?'
p158
aS'On what Comedy Central program was Hammond featured?'
p159
aS'Which people has he impersonated?'
p160
aS'Other'
p161
aS'How old is Darrell Hammond?'
p162
aS'From which university did he graduate?'
p163
aS'What is his annual income?'
p164
aS'On what TV show does Hammond regularly appear?'
p165
aS'His shows appear on which network?'
p166
aS'On what Comedy Central program was Hammond featured?'
p167
aS'Which people has he impersonated?'
p168
aS'Other'
p169
aS'How old is Darrell Hammond?'
p170
aS'From which university did he graduate?'
p171
aS'What is his annual income?'
p172
aS'On what TV show does Hammond regularly appear?'
p173
aS'His shows appear on which network?'
p174
aS'On what Comedy Central program was Hammond featured?'
p175
aS'Which people has he impersonated?'
p176
aS'Other'
p177
aS'What year did Curveball defect?'
p178
aS"What was Curveball's profession?"
p179
aS"What is Curveball's real name?"
p180
aS'Which intelligence service employed Curveball?'
p181
aS'Which US government officials accepted his claims regarding Iraqi weapons labs?'
p182
aS'Where does Curveball now live?'
p183
aS'Other'
p184
aS'What year did Curveball defect?'
p185
aS"What was Curveball's profession?"
p186
aS"What is Curveball's real name?"
p187
aS'Which intelligence service employed Curveball?'
p188
aS'Which US government officials accepted his claims regarding Iraqi weapons labs?'
p189
aS'Where does Curveball now live?'
p190
aS'Other'
p191
aS'What year did Curveball defect?'
p192
aS"What was Curveball's profession?"
p193
aS"What is Curveball's real name?"
p194
aS'Which intelligence service employed Curveball?'
p195
aS'Which US government officials accepted his claims regarding Iraqi weapons labs?'
p196
aS'Where does Curveball now live?'
p197
aS'Other'
p198
aS'What year did Curveball defect?'
p199
aS"What was Curveball's profession?"
p200
aS"What is Curveball's real name?"
p201
aS'Which intelligence service employed Curveball?'
p202
aS'Which US government officials accepted his claims regarding Iraqi weapons labs?'
p203
aS'Where does Curveball now live?'
p204
aS'Other'
p205
aS'What year did Curveball defect?'
p206
aS"What was Curveball's profession?"
p207
aS"What is Curveball's real name?"
p208
aS'Which intelligence service employed Curveball?'
p209
aS'Which US government officials accepted his claims regarding Iraqi weapons labs?'
p210
aS'Where does Curveball now live?'
p211
aS'Other'
p212
aS'What year did Curveball defect?'
p213
aS"What was Curveball's profession?"
p214
aS"What is Curveball's real name?"
p215
aS'Which intelligence service employed Curveball?'
p216
aS'Which US government officials accepted his claims regarding Iraqi weapons labs?'
p217
aS'Where does Curveball now live?'
p218
aS'Other'
p219
aS'What year did Curveball defect?'
p220
aS"What was Curveball's profession?"
p221
aS"What is Curveball's real name?"
p222
aS'Which intelligence service employed Curveball?'
p223
aS'Which US government officials accepted his claims regarding Iraqi weapons labs?'
p224
aS'Where does Curveball now live?'
p225
aS'Other'
p226
aS'Who founded the firm?'
p227
aS'In what year was the firm founded?'
p228
aS'What company acquired IMG in 2004?'
p229
aS'Who are members of the board of the IMG?'
p230
aS'Who is the head of the IMG golf division in North America?'
p231
aS'What IMG agent represents Vijay Singh?'
p232
aS'What other sport stars are represented by IMG?'
p233
aS'Other'
p234
aS'Who founded the firm?'
p235
aS'In what year was the firm founded?'
p236
aS'What company acquired IMG in 2004?'
p237
aS'Who are members of the board of the IMG?'
p238
aS'Who is the head of the IMG golf division in North America?'
p239
aS'What IMG agent represents Vijay Singh?'
p240
aS'What other sport stars are represented by IMG?'
p241
aS'Other'
p242
aS'Who founded the firm?'
p243
aS'In what year was the firm founded?'
p244
aS'What company acquired IMG in 2004?'
p245
aS'Who are members of the board of the IMG?'
p246
aS'Who is the head of the IMG golf division in North America?'
p247
aS'What IMG agent represents Vijay Singh?'
p248
aS'What other sport stars are represented by IMG?'
p249
aS'Other'
p250
aS'Who founded the firm?'
p251
aS'In what year was the firm founded?'
p252
aS'What company acquired IMG in 2004?'
p253
aS'Who are members of the board of the IMG?'
p254
aS'Who is the head of the IMG golf division in North America?'
p255
aS'What IMG agent represents Vijay Singh?'
p256
aS'What other sport stars are represented by IMG?'
p257
aS'Other'
p258
aS'Who founded the firm?'
p259
aS'In what year was the firm founded?'
p260
aS'What company acquired IMG in 2004?'
p261
aS'Who are members of the board of the IMG?'
p262
aS'Who is the head of the IMG golf division in North America?'
p263
aS'What IMG agent represents Vijay Singh?'
p264
aS'What other sport stars are represented by IMG?'
p265
aS'Other'
p266
aS'Who founded the firm?'
p267
aS'In what year was the firm founded?'
p268
aS'What company acquired IMG in 2004?'
p269
aS'Who are members of the board of the IMG?'
p270
aS'Who is the head of the IMG golf division in North America?'
p271
aS'What IMG agent represents Vijay Singh?'
p272
aS'What other sport stars are represented by IMG?'
p273
aS'Other'
p274
aS'Who founded the firm?'
p275
aS'In what year was the firm founded?'
p276
aS'What company acquired IMG in 2004?'
p277
aS'Who are members of the board of the IMG?'
p278
aS'Who is the head of the IMG golf division in North America?'
p279
aS'What IMG agent represents Vijay Singh?'
p280
aS'What other sport stars are represented by IMG?'
p281
aS'Other'
p282
aS'Who founded the firm?'
p283
aS'In what year was the firm founded?'
p284
aS'What company acquired IMG in 2004?'
p285
aS'Who are members of the board of the IMG?'
p286
aS'Who is the head of the IMG golf division in North America?'
p287
aS'What IMG agent represents Vijay Singh?'
p288
aS'What other sport stars are represented by IMG?'
p289
aS'Other'
p290
aS'Where is the Mint headquartered?'
p291
aS'What year was the Mint established?'
p292
aS'The Mint is part of which cabinet department?'
p293
aS'Who is director of the Mint?'
p294
aS'Who many dimes does the Mint produce each month?'
p295
aS'What name is given to the coin honoring the Lewis and Clark expedition?'
p296
aS"Name people who have appeared on the Mint's coins."
p297
aS'Other'
p298
aS'Where is the Mint headquartered?'
p299
aS'What year was the Mint established?'
p300
aS'The Mint is part of which cabinet department?'
p301
aS'Who is director of the Mint?'
p302
aS'Who many dimes does the Mint produce each month?'
p303
aS'What name is given to the coin honoring the Lewis and Clark expedition?'
p304
aS"Name people who have appeared on the Mint's coins."
p305
aS'Other'
p306
aS'Where is the Mint headquartered?'
p307
aS'What year was the Mint established?'
p308
aS'The Mint is part of which cabinet department?'
p309
aS'Who is director of the Mint?'
p310
aS'Who many dimes does the Mint produce each month?'
p311
aS'What name is given to the coin honoring the Lewis and Clark expedition?'
p312
aS"Name people who have appeared on the Mint's coins."
p313
aS'Other'
p314
aS'Where is the Mint headquartered?'
p315
aS'What year was the Mint established?'
p316
aS'The Mint is part of which cabinet department?'
p317
aS'Who is director of the Mint?'
p318
aS'Who many dimes does the Mint produce each month?'
p319
aS'What name is given to the coin honoring the Lewis and Clark expedition?'
p320
aS"Name people who have appeared on the Mint's coins."
p321
aS'Other'
p322
aS'Where is the Mint headquartered?'
p323
aS'What year was the Mint established?'
p324
aS'The Mint is part of which cabinet department?'
p325
aS'Who is director of the Mint?'
p326
aS'Who many dimes does the Mint produce each month?'
p327
aS'What name is given to the coin honoring the Lewis and Clark expedition?'
p328
aS"Name people who have appeared on the Mint's coins."
p329
aS'Other'
p330
aS'Where is the Mint headquartered?'
p331
aS'What year was the Mint established?'
p332
aS'The Mint is part of which cabinet department?'
p333
aS'Who is director of the Mint?'
p334
aS'Who many dimes does the Mint produce each month?'
p335
aS'What name is given to the coin honoring the Lewis and Clark expedition?'
p336
aS"Name people who have appeared on the Mint's coins."
p337
aS'Other'
p338
aS'Where is the Mint headquartered?'
p339
aS'What year was the Mint established?'
p340
aS'The Mint is part of which cabinet department?'
p341
aS'Who is director of the Mint?'
p342
aS'Who many dimes does the Mint produce each month?'
p343
aS'What name is given to the coin honoring the Lewis and Clark expedition?'
p344
aS"Name people who have appeared on the Mint's coins."
p345
aS'Other'
p346
aS'Where is the Mint headquartered?'
p347
aS'What year was the Mint established?'
p348
aS'The Mint is part of which cabinet department?'
p349
aS'Who is director of the Mint?'
p350
aS'Who many dimes does the Mint produce each month?'
p351
aS'What name is given to the coin honoring the Lewis and Clark expedition?'
p352
aS"Name people who have appeared on the Mint's coins."
p353
aS'Other'
p354
aS'When was 3M founded?'
p355
aS'Where is the company based?'
p356
aS'Who is the CEO?'
p357
aS'Who was his predecessor as 3M CEO?'
p358
aS'What does 3M stand for?'
p359
aS"What is 3M's web address?"
p360
aS'What brand name products does 3M manufacture?'
p361
aS'Other'
p362
aS'When was 3M founded?'
p363
aS'Where is the company based?'
p364
aS'Who is the CEO?'
p365
aS'Who was his predecessor as 3M CEO?'
p366
aS'What does 3M stand for?'
p367
aS"What is 3M's web address?"
p368
aS'What brand name products does 3M manufacture?'
p369
aS'Other'
p370
aS'When was 3M founded?'
p371
aS'Where is the company based?'
p372
aS'Who is the CEO?'
p373
aS'Who was his predecessor as 3M CEO?'
p374
aS'What does 3M stand for?'
p375
aS"What is 3M's web address?"
p376
aS'What brand name products does 3M manufacture?'
p377
aS'Other'
p378
aS'When was 3M founded?'
p379
aS'Where is the company based?'
p380
aS'Who is the CEO?'
p381
aS'Who was his predecessor as 3M CEO?'
p382
aS'What does 3M stand for?'
p383
aS"What is 3M's web address?"
p384
aS'What brand name products does 3M manufacture?'
p385
aS'Other'
p386
aS'When was 3M founded?'
p387
aS'Where is the company based?'
p388
aS'Who is the CEO?'
p389
aS'Who was his predecessor as 3M CEO?'
p390
aS'What does 3M stand for?'
p391
aS"What is 3M's web address?"
p392
aS'What brand name products does 3M manufacture?'
p393
aS'Other'
p394
aS'When was 3M founded?'
p395
aS'Where is the company based?'
p396
aS'Who is the CEO?'
p397
aS'Who was his predecessor as 3M CEO?'
p398
aS'What does 3M stand for?'
p399
aS"What is 3M's web address?"
p400
aS'What brand name products does 3M manufacture?'
p401
aS'Other'
p402
aS'When was 3M founded?'
p403
aS'Where is the company based?'
p404
aS'Who is the CEO?'
p405
aS'Who was his predecessor as 3M CEO?'
p406
aS'What does 3M stand for?'
p407
aS"What is 3M's web address?"
p408
aS'What brand name products does 3M manufacture?'
p409
aS'Other'
p410
aS'When was 3M founded?'
p411
aS'Where is the company based?'
p412
aS'Who is the CEO?'
p413
aS'Who was his predecessor as 3M CEO?'
p414
aS'What does 3M stand for?'
p415
aS"What is 3M's web address?"
p416
aS'What brand name products does 3M manufacture?'
p417
aS'Other'
p418
aS'Who is the chief executive?'
p419
aS"What is Merrill Lynch's prime business?"
p420
aS'Where is Merrill Lynch headquartered?'
p421
aS'On which street is Merrill Lynch headquarters located?'
p422
aS'By what other name is the company known?'
p423
aS'Name persons involved in law suits with Merrill Lynch.'
p424
aS'Other'
p425
aS'Who is the chief executive?'
p426
aS"What is Merrill Lynch's prime business?"
p427
aS'Where is Merrill Lynch headquartered?'
p428
aS'On which street is Merrill Lynch headquarters located?'
p429
aS'By what other name is the company known?'
p430
aS'Name persons involved in law suits with Merrill Lynch.'
p431
aS'Other'
p432
aS'Who is the chief executive?'
p433
aS"What is Merrill Lynch's prime business?"
p434
aS'Where is Merrill Lynch headquartered?'
p435
aS'On which street is Merrill Lynch headquarters located?'
p436
aS'By what other name is the company known?'
p437
aS'Name persons involved in law suits with Merrill Lynch.'
p438
aS'Other'
p439
aS'Who is the chief executive?'
p440
aS"What is Merrill Lynch's prime business?"
p441
aS'Where is Merrill Lynch headquartered?'
p442
aS'On which street is Merrill Lynch headquarters located?'
p443
aS'By what other name is the company known?'
p444
aS'Name persons involved in law suits with Merrill Lynch.'
p445
aS'Other'
p446
aS'Who is the chief executive?'
p447
aS"What is Merrill Lynch's prime business?"
p448
aS'Where is Merrill Lynch headquartered?'
p449
aS'On which street is Merrill Lynch headquarters located?'
p450
aS'By what other name is the company known?'
p451
aS'Name persons involved in law suits with Merrill Lynch.'
p452
aS'Other'
p453
aS'Who is the chief executive?'
p454
aS"What is Merrill Lynch's prime business?"
p455
aS'Where is Merrill Lynch headquartered?'
p456
aS'On which street is Merrill Lynch headquarters located?'
p457
aS'By what other name is the company known?'
p458
aS'Name persons involved in law suits with Merrill Lynch.'
p459
aS'Other'
p460
aS'Who is the chief executive?'
p461
aS"What is Merrill Lynch's prime business?"
p462
aS'Where is Merrill Lynch headquartered?'
p463
aS'On which street is Merrill Lynch headquarters located?'
p464
aS'By what other name is the company known?'
p465
aS'Name persons involved in law suits with Merrill Lynch.'
p466
aS'Other'
p467
aS'Who is the chairman of WWE?'
p468
aS'Who is the chief executive of WWE?'
p469
aS'Where is WWE headquartered?'
p470
aS'What is "WWE" short for?'
p471
aS'WWE evolved from what earlier organization?'
p472
aS'What cable network airs WWE?'
p473
aS'What wrestlers have appeared in WWE events?'
p474
aS'Other'
p475
aS'Who is the chairman of WWE?'
p476
aS'Who is the chief executive of WWE?'
p477
aS'Where is WWE headquartered?'
p478
aS'What is "WWE" short for?'
p479
aS'WWE evolved from what earlier organization?'
p480
aS'What cable network airs WWE?'
p481
aS'What wrestlers have appeared in WWE events?'
p482
aS'Other'
p483
aS'Who is the chairman of WWE?'
p484
aS'Who is the chief executive of WWE?'
p485
aS'Where is WWE headquartered?'
p486
aS'What is "WWE" short for?'
p487
aS'WWE evolved from what earlier organization?'
p488
aS'What cable network airs WWE?'
p489
aS'What wrestlers have appeared in WWE events?'
p490
aS'Other'
p491
aS'Who is the chairman of WWE?'
p492
aS'Who is the chief executive of WWE?'
p493
aS'Where is WWE headquartered?'
p494
aS'What is "WWE" short for?'
p495
aS'WWE evolved from what earlier organization?'
p496
aS'What cable network airs WWE?'
p497
aS'What wrestlers have appeared in WWE events?'
p498
aS'Other'
p499
aS'Who is the chairman of WWE?'
p500
aS'Who is the chief executive of WWE?'
p501
aS'Where is WWE headquartered?'
p502
aS'What is "WWE" short for?'
p503
aS'WWE evolved from what earlier organization?'
p504
aS'What cable network airs WWE?'
p505
aS'What wrestlers have appeared in WWE events?'
p506
aS'Other'
p507
aS'Who is the chairman of WWE?'
p508
aS'Who is the chief executive of WWE?'
p509
aS'Where is WWE headquartered?'
p510
aS'What is "WWE" short for?'
p511
aS'WWE evolved from what earlier organization?'
p512
aS'What cable network airs WWE?'
p513
aS'What wrestlers have appeared in WWE events?'
p514
aS'Other'
p515
aS'Who is the chairman of WWE?'
p516
aS'Who is the chief executive of WWE?'
p517
aS'Where is WWE headquartered?'
p518
aS'What is "WWE" short for?'
p519
aS'WWE evolved from what earlier organization?'
p520
aS'What cable network airs WWE?'
p521
aS'What wrestlers have appeared in WWE events?'
p522
aS'Other'
p523
aS'Who is the chairman of WWE?'
p524
aS'Who is the chief executive of WWE?'
p525
aS'Where is WWE headquartered?'
p526
aS'What is "WWE" short for?'
p527
aS'WWE evolved from what earlier organization?'
p528
aS'What cable network airs WWE?'
p529
aS'What wrestlers have appeared in WWE events?'
p530
aS'Other'
p531
aS'On what date did the disaster occur?'
p532
aS'Who was the sole survivor?'
p533
aS'What company owned the Sago Mine?'
p534
aS'How many miners died in the disaster?'
p535
aS'In what state was the Sago mine?'
p536
aS'What organization investigated the disaster?'
p537
aS'Who were victims of the disaster?'
p538
aS'Other'
p539
aS'On what date did the disaster occur?'
p540
aS'Who was the sole survivor?'
p541
aS'What company owned the Sago Mine?'
p542
aS'How many miners died in the disaster?'
p543
aS'In what state was the Sago mine?'
p544
aS'What organization investigated the disaster?'
p545
aS'Who were victims of the disaster?'
p546
aS'Other'
p547
aS'On what date did the disaster occur?'
p548
aS'Who was the sole survivor?'
p549
aS'What company owned the Sago Mine?'
p550
aS'How many miners died in the disaster?'
p551
aS'In what state was the Sago mine?'
p552
aS'What organization investigated the disaster?'
p553
aS'Who were victims of the disaster?'
p554
aS'Other'
p555
aS'On what date did the disaster occur?'
p556
aS'Who was the sole survivor?'
p557
aS'What company owned the Sago Mine?'
p558
aS'How many miners died in the disaster?'
p559
aS'In what state was the Sago mine?'
p560
aS'What organization investigated the disaster?'
p561
aS'Who were victims of the disaster?'
p562
aS'Other'
p563
aS'On what date did the disaster occur?'
p564
aS'Who was the sole survivor?'
p565
aS'What company owned the Sago Mine?'
p566
aS'How many miners died in the disaster?'
p567
aS'In what state was the Sago mine?'
p568
aS'What organization investigated the disaster?'
p569
aS'Who were victims of the disaster?'
p570
aS'Other'
p571
aS'On what date did the disaster occur?'
p572
aS'Who was the sole survivor?'
p573
aS'What company owned the Sago Mine?'
p574
aS'How many miners died in the disaster?'
p575
aS'In what state was the Sago mine?'
p576
aS'What organization investigated the disaster?'
p577
aS'Who were victims of the disaster?'
p578
aS'Other'
p579
aS'On what date did the disaster occur?'
p580
aS'Who was the sole survivor?'
p581
aS'What company owned the Sago Mine?'
p582
aS'How many miners died in the disaster?'
p583
aS'In what state was the Sago mine?'
p584
aS'What organization investigated the disaster?'
p585
aS'Who were victims of the disaster?'
p586
aS'Other'
p587
aS'On what date did the disaster occur?'
p588
aS'Who was the sole survivor?'
p589
aS'What company owned the Sago Mine?'
p590
aS'How many miners died in the disaster?'
p591
aS'In what state was the Sago mine?'
p592
aS'What organization investigated the disaster?'
p593
aS'Who were victims of the disaster?'
p594
aS'Other'
p595
aS'On what date did she withdraw her nomination?'
p596
aS'On what date was she nominated for the post?'
p597
aS'Whose place would she have taken on the Supreme Court?'
p598
aS'Who nominated Miers for the post?'
p599
aS'What criterion did this person cite in nominating Miers?'
p600
aS'How old is Harriet Miers?'
p601
aS'What Republican senators supported the nomination?'
p602
aS'Other'
p603
aS'On what date did she withdraw her nomination?'
p604
aS'On what date was she nominated for the post?'
p605
aS'Whose place would she have taken on the Supreme Court?'
p606
aS'Who nominated Miers for the post?'
p607
aS'What criterion did this person cite in nominating Miers?'
p608
aS'How old is Harriet Miers?'
p609
aS'What Republican senators supported the nomination?'
p610
aS'Other'
p611
aS'On what date did she withdraw her nomination?'
p612
aS'On what date was she nominated for the post?'
p613
aS'Whose place would she have taken on the Supreme Court?'
p614
aS'Who nominated Miers for the post?'
p615
aS'What criterion did this person cite in nominating Miers?'
p616
aS'How old is Harriet Miers?'
p617
aS'What Republican senators supported the nomination?'
p618
aS'Other'
p619
aS'On what date did she withdraw her nomination?'
p620
aS'On what date was she nominated for the post?'
p621
aS'Whose place would she have taken on the Supreme Court?'
p622
aS'Who nominated Miers for the post?'
p623
aS'What criterion did this person cite in nominating Miers?'
p624
aS'How old is Harriet Miers?'
p625
aS'What Republican senators supported the nomination?'
p626
aS'Other'
p627
aS'On what date did she withdraw her nomination?'
p628
aS'On what date was she nominated for the post?'
p629
aS'Whose place would she have taken on the Supreme Court?'
p630
aS'Who nominated Miers for the post?'
p631
aS'What criterion did this person cite in nominating Miers?'
p632
aS'How old is Harriet Miers?'
p633
aS'What Republican senators supported the nomination?'
p634
aS'Other'
p635
aS'On what date did she withdraw her nomination?'
p636
aS'On what date was she nominated for the post?'
p637
aS'Whose place would she have taken on the Supreme Court?'
p638
aS'Who nominated Miers for the post?'
p639
aS'What criterion did this person cite in nominating Miers?'
p640
aS'How old is Harriet Miers?'
p641
aS'What Republican senators supported the nomination?'
p642
aS'Other'
p643
aS'On what date did she withdraw her nomination?'
p644
aS'On what date was she nominated for the post?'
p645
aS'Whose place would she have taken on the Supreme Court?'
p646
aS'Who nominated Miers for the post?'
p647
aS'What criterion did this person cite in nominating Miers?'
p648
aS'How old is Harriet Miers?'
p649
aS'What Republican senators supported the nomination?'
p650
aS'Other'
p651
aS'On what date did she withdraw her nomination?'
p652
aS'On what date was she nominated for the post?'
p653
aS'Whose place would she have taken on the Supreme Court?'
p654
aS'Who nominated Miers for the post?'
p655
aS'What criterion did this person cite in nominating Miers?'
p656
aS'How old is Harriet Miers?'
p657
aS'What Republican senators supported the nomination?'
p658
aS'Other'
p659
aS'Who was Blake accused of murdering?'
p660
aS'On what date did the court begin screening potential jurors?'
p661
aS'On what date did the trial end?'
p662
aS'Who was the judge in the trial?'
p663
aS'What was the verdict in the trial?'
p664
aS'Which attorney was the last prosecutor?'
p665
aS'Who were witnesses during the trial?'
p666
aS'Other'
p667
aS'Who was Blake accused of murdering?'
p668
aS'On what date did the court begin screening potential jurors?'
p669
aS'On what date did the trial end?'
p670
aS'Who was the judge in the trial?'
p671
aS'What was the verdict in the trial?'
p672
aS'Which attorney was the last prosecutor?'
p673
aS'Who were witnesses during the trial?'
p674
aS'Other'
p675
aS'Who was Blake accused of murdering?'
p676
aS'On what date did the court begin screening potential jurors?'
p677
aS'On what date did the trial end?'
p678
aS'Who was the judge in the trial?'
p679
aS'What was the verdict in the trial?'
p680
aS'Which attorney was the last prosecutor?'
p681
aS'Who were witnesses during the trial?'
p682
aS'Other'
p683
aS'Who was Blake accused of murdering?'
p684
aS'On what date did the court begin screening potential jurors?'
p685
aS'On what date did the trial end?'
p686
aS'Who was the judge in the trial?'
p687
aS'What was the verdict in the trial?'
p688
aS'Which attorney was the last prosecutor?'
p689
aS'Who were witnesses during the trial?'
p690
aS'Other'
p691
aS'Who was Blake accused of murdering?'
p692
aS'On what date did the court begin screening potential jurors?'
p693
aS'On what date did the trial end?'
p694
aS'Who was the judge in the trial?'
p695
aS'What was the verdict in the trial?'
p696
aS'Which attorney was the last prosecutor?'
p697
aS'Who were witnesses during the trial?'
p698
aS'Other'
p699
aS'Who was Blake accused of murdering?'
p700
aS'On what date did the court begin screening potential jurors?'
p701
aS'On what date did the trial end?'
p702
aS'Who was the judge in the trial?'
p703
aS'What was the verdict in the trial?'
p704
aS'Which attorney was the last prosecutor?'
p705
aS'Who were witnesses during the trial?'
p706
aS'Other'
p707
aS'Who was Blake accused of murdering?'
p708
aS'On what date did the court begin screening potential jurors?'
p709
aS'On what date did the trial end?'
p710
aS'Who was the judge in the trial?'
p711
aS'What was the verdict in the trial?'
p712
aS'Which attorney was the last prosecutor?'
p713
aS'Who were witnesses during the trial?'
p714
aS'Other'
p715
aS'Who was Blake accused of murdering?'
p716
aS'On what date did the court begin screening potential jurors?'
p717
aS'On what date did the trial end?'
p718
aS'Who was the judge in the trial?'
p719
aS'What was the verdict in the trial?'
p720
aS'Which attorney was the last prosecutor?'
p721
aS'Who were witnesses during the trial?'
p722
aS'Other'
p723
aS'How long does the Madness last?'
p724
aS'What is another slang expression for the Madness?'
p725
aS'When is the concluding night of the Madness?'
p726
aS"What expression describes the Madness' semifinals?"
p727
aS'How many teams compete in the Madness?'
p728
aS'What head coaches had teams in the Madness?'
p729
aS'Other'
p730
aS'How long does the Madness last?'
p731
aS'What is another slang expression for the Madness?'
p732
aS'When is the concluding night of the Madness?'
p733
aS"What expression describes the Madness' semifinals?"
p734
aS'How many teams compete in the Madness?'
p735
aS'What head coaches had teams in the Madness?'
p736
aS'Other'
p737
aS'How long does the Madness last?'
p738
aS'What is another slang expression for the Madness?'
p739
aS'When is the concluding night of the Madness?'
p740
aS"What expression describes the Madness' semifinals?"
p741
aS'How many teams compete in the Madness?'
p742
aS'What head coaches had teams in the Madness?'
p743
aS'Other'
p744
aS'How long does the Madness last?'
p745
aS'What is another slang expression for the Madness?'
p746
aS'When is the concluding night of the Madness?'
p747
aS"What expression describes the Madness' semifinals?"
p748
aS'How many teams compete in the Madness?'
p749
aS'What head coaches had teams in the Madness?'
p750
aS'Other'
p751
aS'How long does the Madness last?'
p752
aS'What is another slang expression for the Madness?'
p753
aS'When is the concluding night of the Madness?'
p754
aS"What expression describes the Madness' semifinals?"
p755
aS'How many teams compete in the Madness?'
p756
aS'What head coaches had teams in the Madness?'
p757
aS'Other'
p758
aS'How long does the Madness last?'
p759
aS'What is another slang expression for the Madness?'
p760
aS'When is the concluding night of the Madness?'
p761
aS"What expression describes the Madness' semifinals?"
p762
aS'How many teams compete in the Madness?'
p763
aS'What head coaches had teams in the Madness?'
p764
aS'Other'
p765
aS'How long does the Madness last?'
p766
aS'What is another slang expression for the Madness?'
p767
aS'When is the concluding night of the Madness?'
p768
aS"What expression describes the Madness' semifinals?"
p769
aS'How many teams compete in the Madness?'
p770
aS'What head coaches had teams in the Madness?'
p771
aS'Other'
p772
aS'In what city was the operation performed?'
p773
aS'What was the age of the recipient?'
p774
aS'What was the name of the recipient?'
p775
aS'On what date was the surgery performed?'
p776
aS'Who supervised the transplant?'
p777
aS"What was the cause of the recipient's facial problem?"
p778
aS'What individuals with professional experience in medicine or ethics commented unfavorably on the procedure?'
p779
aS'Other'
p780
aS'In what city was the operation performed?'
p781
aS'What was the age of the recipient?'
p782
aS'What was the name of the recipient?'
p783
aS'On what date was the surgery performed?'
p784
aS'Who supervised the transplant?'
p785
aS"What was the cause of the recipient's facial problem?"
p786
aS'What individuals with professional experience in medicine or ethics commented unfavorably on the procedure?'
p787
aS'Other'
p788
aS'In what city was the operation performed?'
p789
aS'What was the age of the recipient?'
p790
aS'What was the name of the recipient?'
p791
aS'On what date was the surgery performed?'
p792
aS'Who supervised the transplant?'
p793
aS"What was the cause of the recipient's facial problem?"
p794
aS'What individuals with professional experience in medicine or ethics commented unfavorably on the procedure?'
p795
aS'Other'
p796
aS'In what city was the operation performed?'
p797
aS'What was the age of the recipient?'
p798
aS'What was the name of the recipient?'
p799
aS'On what date was the surgery performed?'
p800
aS'Who supervised the transplant?'
p801
aS"What was the cause of the recipient's facial problem?"
p802
aS'What individuals with professional experience in medicine or ethics commented unfavorably on the procedure?'
p803
aS'Other'
p804
aS'In what city was the operation performed?'
p805
aS'What was the age of the recipient?'
p806
aS'What was the name of the recipient?'
p807
aS'On what date was the surgery performed?'
p808
aS'Who supervised the transplant?'
p809
aS"What was the cause of the recipient's facial problem?"
p810
aS'What individuals with professional experience in medicine or ethics commented unfavorably on the procedure?'
p811
aS'Other'
p812
aS'In what city was the operation performed?'
p813
aS'What was the age of the recipient?'
p814
aS'What was the name of the recipient?'
p815
aS'On what date was the surgery performed?'
p816
aS'Who supervised the transplant?'
p817
aS"What was the cause of the recipient's facial problem?"
p818
aS'What individuals with professional experience in medicine or ethics commented unfavorably on the procedure?'
p819
aS'Other'
p820
aS'In what city was the operation performed?'
p821
aS'What was the age of the recipient?'
p822
aS'What was the name of the recipient?'
p823
aS'On what date was the surgery performed?'
p824
aS'Who supervised the transplant?'
p825
aS"What was the cause of the recipient's facial problem?"
p826
aS'What individuals with professional experience in medicine or ethics commented unfavorably on the procedure?'
p827
aS'Other'
p828
aS'In what city was the operation performed?'
p829
aS'What was the age of the recipient?'
p830
aS'What was the name of the recipient?'
p831
aS'On what date was the surgery performed?'
p832
aS'Who supervised the transplant?'
p833
aS"What was the cause of the recipient's facial problem?"
p834
aS'What individuals with professional experience in medicine or ethics commented unfavorably on the procedure?'
p835
aS'Other'
p836
aS'What is the expansion of "AMT"?'
p837
aS'On what IRS tax form is the AMT calculation done?'
p838
aS'In what year was the AMT added to the Tax Code?'
p839
aS'What is the AMT exemption amount for a single taxpayer in 2006?'
p840
aS'What does President Bush want to do to the AMT?'
p841
aS'Which Congress persons want to change the AMT?'
p842
aS'Other'
p843
aS'What is the expansion of "AMT"?'
p844
aS'On what IRS tax form is the AMT calculation done?'
p845
aS'In what year was the AMT added to the Tax Code?'
p846
aS'What is the AMT exemption amount for a single taxpayer in 2006?'
p847
aS'What does President Bush want to do to the AMT?'
p848
aS'Which Congress persons want to change the AMT?'
p849
aS'Other'
p850
aS'What is the expansion of "AMT"?'
p851
aS'On what IRS tax form is the AMT calculation done?'
p852
aS'In what year was the AMT added to the Tax Code?'
p853
aS'What is the AMT exemption amount for a single taxpayer in 2006?'
p854
aS'What does President Bush want to do to the AMT?'
p855
aS'Which Congress persons want to change the AMT?'
p856
aS'Other'
p857
aS'What is the expansion of "AMT"?'
p858
aS'On what IRS tax form is the AMT calculation done?'
p859
aS'In what year was the AMT added to the Tax Code?'
p860
aS'What is the AMT exemption amount for a single taxpayer in 2006?'
p861
aS'What does President Bush want to do to the AMT?'
p862
aS'Which Congress persons want to change the AMT?'
p863
aS'Other'
p864
aS'What is the expansion of "AMT"?'
p865
aS'On what IRS tax form is the AMT calculation done?'
p866
aS'In what year was the AMT added to the Tax Code?'
p867
aS'What is the AMT exemption amount for a single taxpayer in 2006?'
p868
aS'What does President Bush want to do to the AMT?'
p869
aS'Which Congress persons want to change the AMT?'
p870
aS'Other'
p871
aS'What is the expansion of "AMT"?'
p872
aS'On what IRS tax form is the AMT calculation done?'
p873
aS'In what year was the AMT added to the Tax Code?'
p874
aS'What is the AMT exemption amount for a single taxpayer in 2006?'
p875
aS'What does President Bush want to do to the AMT?'
p876
aS'Which Congress persons want to change the AMT?'
p877
aS'Other'
p878
aS'What is the expansion of "AMT"?'
p879
aS'On what IRS tax form is the AMT calculation done?'
p880
aS'In what year was the AMT added to the Tax Code?'
p881
aS'What is the AMT exemption amount for a single taxpayer in 2006?'
p882
aS'What does President Bush want to do to the AMT?'
p883
aS'Which Congress persons want to change the AMT?'
p884
aS'Other'
p885
aS'What is the abbreviated ship designation for the USS Abraham Lincoln?'
p886
aS'On what date was the USS Abraham Lincoln commissioned?'
p887
aS'Where is the USS Abraham Lincoln home ported?'
p888
aS'On what date did President Bush visit the USS Abraham Lincoln?'
p889
aS'Who is the commander of the USS Abraham Lincoln?'
p890
aS'What types of aircraft can fly from the USS Abraham Lincoln?'
p891
aS'Other'
p892
aS'What is the abbreviated ship designation for the USS Abraham Lincoln?'
p893
aS'On what date was the USS Abraham Lincoln commissioned?'
p894
aS'Where is the USS Abraham Lincoln home ported?'
p895
aS'On what date did President Bush visit the USS Abraham Lincoln?'
p896
aS'Who is the commander of the USS Abraham Lincoln?'
p897
aS'What types of aircraft can fly from the USS Abraham Lincoln?'
p898
aS'Other'
p899
aS'What is the abbreviated ship designation for the USS Abraham Lincoln?'
p900
aS'On what date was the USS Abraham Lincoln commissioned?'
p901
aS'Where is the USS Abraham Lincoln home ported?'
p902
aS'On what date did President Bush visit the USS Abraham Lincoln?'
p903
aS'Who is the commander of the USS Abraham Lincoln?'
p904
aS'What types of aircraft can fly from the USS Abraham Lincoln?'
p905
aS'Other'
p906
aS'What is the abbreviated ship designation for the USS Abraham Lincoln?'
p907
aS'On what date was the USS Abraham Lincoln commissioned?'
p908
aS'Where is the USS Abraham Lincoln home ported?'
p909
aS'On what date did President Bush visit the USS Abraham Lincoln?'
p910
aS'Who is the commander of the USS Abraham Lincoln?'
p911
aS'What types of aircraft can fly from the USS Abraham Lincoln?'
p912
aS'Other'
p913
aS'What is the abbreviated ship designation for the USS Abraham Lincoln?'
p914
aS'On what date was the USS Abraham Lincoln commissioned?'
p915
aS'Where is the USS Abraham Lincoln home ported?'
p916
aS'On what date did President Bush visit the USS Abraham Lincoln?'
p917
aS'Who is the commander of the USS Abraham Lincoln?'
p918
aS'What types of aircraft can fly from the USS Abraham Lincoln?'
p919
aS'Other'
p920
aS'What is the abbreviated ship designation for the USS Abraham Lincoln?'
p921
aS'On what date was the USS Abraham Lincoln commissioned?'
p922
aS'Where is the USS Abraham Lincoln home ported?'
p923
aS'On what date did President Bush visit the USS Abraham Lincoln?'
p924
aS'Who is the commander of the USS Abraham Lincoln?'
p925
aS'What types of aircraft can fly from the USS Abraham Lincoln?'
p926
aS'Other'
p927
aS'What is the abbreviated ship designation for the USS Abraham Lincoln?'
p928
aS'On what date was the USS Abraham Lincoln commissioned?'
p929
aS'Where is the USS Abraham Lincoln home ported?'
p930
aS'On what date did President Bush visit the USS Abraham Lincoln?'
p931
aS'Who is the commander of the USS Abraham Lincoln?'
p932
aS'What types of aircraft can fly from the USS Abraham Lincoln?'
p933
aS'Other'
p934
aS'What is the 3-character airport code for Dulles?'
p935
aS'What is the approved designation for Dulles?'
p936
aS'In what state is Dulles located?'
p937
aS'Who is the airport named after?'
p938
aS'Which authority runs the airport?'
p939
aS'Which airlines use Dulles?'
p940
aS'Other'
p941
aS'What is the 3-character airport code for Dulles?'
p942
aS'What is the approved designation for Dulles?'
p943
aS'In what state is Dulles located?'
p944
aS'Who is the airport named after?'
p945
aS'Which authority runs the airport?'
p946
aS'Which airlines use Dulles?'
p947
aS'Other'
p948
aS'What is the 3-character airport code for Dulles?'
p949
aS'What is the approved designation for Dulles?'
p950
aS'In what state is Dulles located?'
p951
aS'Who is the airport named after?'
p952
aS'Which authority runs the airport?'
p953
aS'Which airlines use Dulles?'
p954
aS'Other'
p955
aS'What is the 3-character airport code for Dulles?'
p956
aS'What is the approved designation for Dulles?'
p957
aS'In what state is Dulles located?'
p958
aS'Who is the airport named after?'
p959
aS'Which authority runs the airport?'
p960
aS'Which airlines use Dulles?'
p961
aS'Other'
p962
aS'What is the 3-character airport code for Dulles?'
p963
aS'What is the approved designation for Dulles?'
p964
aS'In what state is Dulles located?'
p965
aS'Who is the airport named after?'
p966
aS'Which authority runs the airport?'
p967
aS'Which airlines use Dulles?'
p968
aS'Other'
p969
aS'What is the 3-character airport code for Dulles?'
p970
aS'What is the approved designation for Dulles?'
p971
aS'In what state is Dulles located?'
p972
aS'Who is the airport named after?'
p973
aS'Which authority runs the airport?'
p974
aS'Which airlines use Dulles?'
p975
aS'Other'
p976
aS'What is the 3-character airport code for Dulles?'
p977
aS'What is the approved designation for Dulles?'
p978
aS'In what state is Dulles located?'
p979
aS'Who is the airport named after?'
p980
aS'Which authority runs the airport?'
p981
aS'Which airlines use Dulles?'
p982
aS'Other'
p983
aS'Who was the creator of the strip?'
p984
aS'Blondie is syndicated by what organization?'
p985
aS'Name characters in the strip besides Blondie.'
p986
aS'What is the last name of the character Blondie?'
p987
aS"What is the name of Blondie's father-in-law?"
p988
aS'Other'
p989
aS'Who was the creator of the strip?'
p990
aS'Blondie is syndicated by what organization?'
p991
aS'Name characters in the strip besides Blondie.'
p992
aS'What is the last name of the character Blondie?'
p993
aS"What is the name of Blondie's father-in-law?"
p994
aS'Other'
p995
aS'Who was the creator of the strip?'
p996
aS'Blondie is syndicated by what organization?'
p997
aS'Name characters in the strip besides Blondie.'
p998
aS'What is the last name of the character Blondie?'
p999
aS"What is the name of Blondie's father-in-law?"
p1000
aS'Other'
p1001
aS'Who was the creator of the strip?'
p1002
aS'Blondie is syndicated by what organization?'
p1003
aS'Name characters in the strip besides Blondie.'
p1004
aS'What is the last name of the character Blondie?'
p1005
aS"What is the name of Blondie's father-in-law?"
p1006
aS'Other'
p1007
aS'Who was the creator of the strip?'
p1008
aS'Blondie is syndicated by what organization?'
p1009
aS'Name characters in the strip besides Blondie.'
p1010
aS'What is the last name of the character Blondie?'
p1011
aS"What is the name of Blondie's father-in-law?"
p1012
aS'Other'
p1013
aS'Who was the creator of the strip?'
p1014
aS'Blondie is syndicated by what organization?'
p1015
aS'Name characters in the strip besides Blondie.'
p1016
aS'What is the last name of the character Blondie?'
p1017
aS"What is the name of Blondie's father-in-law?"
p1018
aS'Other'
p1019
aS'In what country was Irving Berlin born?'
p1020
aS'How many songs did Irving Berlin compose?'
p1021
aS"What was Irving Berlin's first big hit?"
p1022
aS"List some of Berlin's compositions."
p1023
aS'When did Irving Berlin die?'
p1024
aS'How did Irving Berlin die?'
p1025
aS'Other'
p1026
aS'In what country was Irving Berlin born?'
p1027
aS'How many songs did Irving Berlin compose?'
p1028
aS"What was Irving Berlin's first big hit?"
p1029
aS"List some of Berlin's compositions."
p1030
aS'When did Irving Berlin die?'
p1031
aS'How did Irving Berlin die?'
p1032
aS'Other'
p1033
aS'In what country was Irving Berlin born?'
p1034
aS'How many songs did Irving Berlin compose?'
p1035
aS"What was Irving Berlin's first big hit?"
p1036
aS"List some of Berlin's compositions."
p1037
aS'When did Irving Berlin die?'
p1038
aS'How did Irving Berlin die?'
p1039
aS'Other'
p1040
aS'In what country was Irving Berlin born?'
p1041
aS'How many songs did Irving Berlin compose?'
p1042
aS"What was Irving Berlin's first big hit?"
p1043
aS"List some of Berlin's compositions."
p1044
aS'When did Irving Berlin die?'
p1045
aS'How did Irving Berlin die?'
p1046
aS'Other'
p1047
aS'In what country was Irving Berlin born?'
p1048
aS'How many songs did Irving Berlin compose?'
p1049
aS"What was Irving Berlin's first big hit?"
p1050
aS"List some of Berlin's compositions."
p1051
aS'When did Irving Berlin die?'
p1052
aS'How did Irving Berlin die?'
p1053
aS'Other'
p1054
aS'In what country was Irving Berlin born?'
p1055
aS'How many songs did Irving Berlin compose?'
p1056
aS"What was Irving Berlin's first big hit?"
p1057
aS"List some of Berlin's compositions."
p1058
aS'When did Irving Berlin die?'
p1059
aS'How did Irving Berlin die?'
p1060
aS'Other'
p1061
aS'In what country was Irving Berlin born?'
p1062
aS'How many songs did Irving Berlin compose?'
p1063
aS"What was Irving Berlin's first big hit?"
p1064
aS"List some of Berlin's compositions."
p1065
aS'When did Irving Berlin die?'
p1066
aS'How did Irving Berlin die?'
p1067
aS'Other'
p1068
aS'In what year was Susan Butcher born?'
p1069
aS'How many times did Susan Butcher run the Iditarod Race?'
p1070
aS'How many times did Susan Butcher win the Iditarod Race?'
p1071
aS'List the years that she won the Iditarod Race.'
p1072
aS'Where does she live?'
p1073
aS'On what date was she diagnosed with acute myelogenous leukemia?'
p1074
aS'Other'
p1075
aS'In what year was Susan Butcher born?'
p1076
aS'How many times did Susan Butcher run the Iditarod Race?'
p1077
aS'How many times did Susan Butcher win the Iditarod Race?'
p1078
aS'List the years that she won the Iditarod Race.'
p1079
aS'Where does she live?'
p1080
aS'On what date was she diagnosed with acute myelogenous leukemia?'
p1081
aS'Other'
p1082
aS'In what year was Susan Butcher born?'
p1083
aS'How many times did Susan Butcher run the Iditarod Race?'
p1084
aS'How many times did Susan Butcher win the Iditarod Race?'
p1085
aS'List the years that she won the Iditarod Race.'
p1086
aS'Where does she live?'
p1087
aS'On what date was she diagnosed with acute myelogenous leukemia?'
p1088
aS'Other'
p1089
aS'In what year was Susan Butcher born?'
p1090
aS'How many times did Susan Butcher run the Iditarod Race?'
p1091
aS'How many times did Susan Butcher win the Iditarod Race?'
p1092
aS'List the years that she won the Iditarod Race.'
p1093
aS'Where does she live?'
p1094
aS'On what date was she diagnosed with acute myelogenous leukemia?'
p1095
aS'Other'
p1096
aS'In what year was Susan Butcher born?'
p1097
aS'How many times did Susan Butcher run the Iditarod Race?'
p1098
aS'How many times did Susan Butcher win the Iditarod Race?'
p1099
aS'List the years that she won the Iditarod Race.'
p1100
aS'Where does she live?'
p1101
aS'On what date was she diagnosed with acute myelogenous leukemia?'
p1102
aS'Other'
p1103
aS'In what year was Susan Butcher born?'
p1104
aS'How many times did Susan Butcher run the Iditarod Race?'
p1105
aS'How many times did Susan Butcher win the Iditarod Race?'
p1106
aS'List the years that she won the Iditarod Race.'
p1107
aS'Where does she live?'
p1108
aS'On what date was she diagnosed with acute myelogenous leukemia?'
p1109
aS'Other'
p1110
aS'In what year was Susan Butcher born?'
p1111
aS'How many times did Susan Butcher run the Iditarod Race?'
p1112
aS'How many times did Susan Butcher win the Iditarod Race?'
p1113
aS'List the years that she won the Iditarod Race.'
p1114
aS'Where does she live?'
p1115
aS'On what date was she diagnosed with acute myelogenous leukemia?'
p1116
aS'Other'
p1117
aS'Who is the conductor of the Boston Pops?'
p1118
aS'List previous conductors of the Boston Pops.'
p1119
aS'What is the annual salary of the Boston Pops conductor?'
p1120
aS'Who is the manager of the Boston Pops?'
p1121
aS'What is the concert venue of the Boston Pops?'
p1122
aS'How many concerts did the Boston Pops hold there in 2005?'
p1123
aS'Other'
p1124
aS'Who is the conductor of the Boston Pops?'
p1125
aS'List previous conductors of the Boston Pops.'
p1126
aS'What is the annual salary of the Boston Pops conductor?'
p1127
aS'Who is the manager of the Boston Pops?'
p1128
aS'What is the concert venue of the Boston Pops?'
p1129
aS'How many concerts did the Boston Pops hold there in 2005?'
p1130
aS'Other'
p1131
aS'Who is the conductor of the Boston Pops?'
p1132
aS'List previous conductors of the Boston Pops.'
p1133
aS'What is the annual salary of the Boston Pops conductor?'
p1134
aS'Who is the manager of the Boston Pops?'
p1135
aS'What is the concert venue of the Boston Pops?'
p1136
aS'How many concerts did the Boston Pops hold there in 2005?'
p1137
aS'Other'
p1138
aS'Who is the conductor of the Boston Pops?'
p1139
aS'List previous conductors of the Boston Pops.'
p1140
aS'What is the annual salary of the Boston Pops conductor?'
p1141
aS'Who is the manager of the Boston Pops?'
p1142
aS'What is the concert venue of the Boston Pops?'
p1143
aS'How many concerts did the Boston Pops hold there in 2005?'
p1144
aS'Other'
p1145
aS'Who is the conductor of the Boston Pops?'
p1146
aS'List previous conductors of the Boston Pops.'
p1147
aS'What is the annual salary of the Boston Pops conductor?'
p1148
aS'Who is the manager of the Boston Pops?'
p1149
aS'What is the concert venue of the Boston Pops?'
p1150
aS'How many concerts did the Boston Pops hold there in 2005?'
p1151
aS'Other'
p1152
aS'Who is the conductor of the Boston Pops?'
p1153
aS'List previous conductors of the Boston Pops.'
p1154
aS'What is the annual salary of the Boston Pops conductor?'
p1155
aS'Who is the manager of the Boston Pops?'
p1156
aS'What is the concert venue of the Boston Pops?'
p1157
aS'How many concerts did the Boston Pops hold there in 2005?'
p1158
aS'Other'
p1159
aS'Who is the conductor of the Boston Pops?'
p1160
aS'List previous conductors of the Boston Pops.'
p1161
aS'What is the annual salary of the Boston Pops conductor?'
p1162
aS'Who is the manager of the Boston Pops?'
p1163
aS'What is the concert venue of the Boston Pops?'
p1164
aS'How many concerts did the Boston Pops hold there in 2005?'
p1165
aS'Other'
p1166
aS'What corporation owns Cunard Cruise Lines?'
p1167
aS'In what city is this corporation based?'
p1168
aS"Who is Cunard's president and managing director?"
p1169
aS'What is the name of the largest ship in Cunard Cruise Lines?'
p1170
aS'How many passengers have traveled with Cunard Cruise Lines?'
p1171
aS'List the ships in Cunard Cruise Lines.'
p1172
aS'Other'
p1173
aS'What corporation owns Cunard Cruise Lines?'
p1174
aS'In what city is this corporation based?'
p1175
aS"Who is Cunard's president and managing director?"
p1176
aS'What is the name of the largest ship in Cunard Cruise Lines?'
p1177
aS'How many passengers have traveled with Cunard Cruise Lines?'
p1178
aS'List the ships in Cunard Cruise Lines.'
p1179
aS'Other'
p1180
aS'What corporation owns Cunard Cruise Lines?'
p1181
aS'In what city is this corporation based?'
p1182
aS"Who is Cunard's president and managing director?"
p1183
aS'What is the name of the largest ship in Cunard Cruise Lines?'
p1184
aS'How many passengers have traveled with Cunard Cruise Lines?'
p1185
aS'List the ships in Cunard Cruise Lines.'
p1186
aS'Other'
p1187
aS'What corporation owns Cunard Cruise Lines?'
p1188
aS'In what city is this corporation based?'
p1189
aS"Who is Cunard's president and managing director?"
p1190
aS'What is the name of the largest ship in Cunard Cruise Lines?'
p1191
aS'How many passengers have traveled with Cunard Cruise Lines?'
p1192
aS'List the ships in Cunard Cruise Lines.'
p1193
aS'Other'
p1194
aS'What corporation owns Cunard Cruise Lines?'
p1195
aS'In what city is this corporation based?'
p1196
aS"Who is Cunard's president and managing director?"
p1197
aS'What is the name of the largest ship in Cunard Cruise Lines?'
p1198
aS'How many passengers have traveled with Cunard Cruise Lines?'
p1199
aS'List the ships in Cunard Cruise Lines.'
p1200
aS'Other'
p1201
aS'What corporation owns Cunard Cruise Lines?'
p1202
aS'In what city is this corporation based?'
p1203
aS"Who is Cunard's president and managing director?"
p1204
aS'What is the name of the largest ship in Cunard Cruise Lines?'
p1205
aS'How many passengers have traveled with Cunard Cruise Lines?'
p1206
aS'List the ships in Cunard Cruise Lines.'
p1207
aS'Other'
p1208
aS'What corporation owns Cunard Cruise Lines?'
p1209
aS'In what city is this corporation based?'
p1210
aS"Who is Cunard's president and managing director?"
p1211
aS'What is the name of the largest ship in Cunard Cruise Lines?'
p1212
aS'How many passengers have traveled with Cunard Cruise Lines?'
p1213
aS'List the ships in Cunard Cruise Lines.'
p1214
aS'Other'
p1215
aS'Who won the 2004 World Series?'
p1216
aS'What team was defeated in the 2004 World Series?'
p1217
aS'How many years transpired between world championships for the winning team?'
p1218
aS'Who drove in the deciding runs in the first game of the 2004 World Series?'
p1219
aS'List some of the stars in the 2004 World Series.'
p1220
aS'Other'
p1221
aS'Who won the 2004 World Series?'
p1222
aS'What team was defeated in the 2004 World Series?'
p1223
aS'How many years transpired between world championships for the winning team?'
p1224
aS'Who drove in the deciding runs in the first game of the 2004 World Series?'
p1225
aS'List some of the stars in the 2004 World Series.'
p1226
aS'Other'
p1227
aS'Who won the 2004 World Series?'
p1228
aS'What team was defeated in the 2004 World Series?'
p1229
aS'How many years transpired between world championships for the winning team?'
p1230
aS'Who drove in the deciding runs in the first game of the 2004 World Series?'
p1231
aS'List some of the stars in the 2004 World Series.'
p1232
aS'Other'
p1233
aS'Who won the 2004 World Series?'
p1234
aS'What team was defeated in the 2004 World Series?'
p1235
aS'How many years transpired between world championships for the winning team?'
p1236
aS'Who drove in the deciding runs in the first game of the 2004 World Series?'
p1237
aS'List some of the stars in the 2004 World Series.'
p1238
aS'Other'
p1239
aS'Who won the 2004 World Series?'
p1240
aS'What team was defeated in the 2004 World Series?'
p1241
aS'How many years transpired between world championships for the winning team?'
p1242
aS'Who drove in the deciding runs in the first game of the 2004 World Series?'
p1243
aS'List some of the stars in the 2004 World Series.'
p1244
aS'Other'
p1245
aS'Who won the 2004 World Series?'
p1246
aS'What team was defeated in the 2004 World Series?'
p1247
aS'How many years transpired between world championships for the winning team?'
p1248
aS'Who drove in the deciding runs in the first game of the 2004 World Series?'
p1249
aS'List some of the stars in the 2004 World Series.'
p1250
aS'Other'
p1251
aS'On what date did Jeopardy air for the first time?'
p1252
aS'Who was the first host of Jeopardy?'
p1253
aS'Who is the current host of Jeopardy?'
p1254
aS'What Jeopardy contestant is the biggest money-winner in television game show history?'
p1255
aS'List some contestants on Jeopardy.'
p1256
aS'Other'
p1257
aS'On what date did Jeopardy air for the first time?'
p1258
aS'Who was the first host of Jeopardy?'
p1259
aS'Who is the current host of Jeopardy?'
p1260
aS'What Jeopardy contestant is the biggest money-winner in television game show history?'
p1261
aS'List some contestants on Jeopardy.'
p1262
aS'Other'
p1263
aS'On what date did Jeopardy air for the first time?'
p1264
aS'Who was the first host of Jeopardy?'
p1265
aS'Who is the current host of Jeopardy?'
p1266
aS'What Jeopardy contestant is the biggest money-winner in television game show history?'
p1267
aS'List some contestants on Jeopardy.'
p1268
aS'Other'
p1269
aS'On what date did Jeopardy air for the first time?'
p1270
aS'Who was the first host of Jeopardy?'
p1271
aS'Who is the current host of Jeopardy?'
p1272
aS'What Jeopardy contestant is the biggest money-winner in television game show history?'
p1273
aS'List some contestants on Jeopardy.'
p1274
aS'Other'
p1275
aS'On what date did Jeopardy air for the first time?'
p1276
aS'Who was the first host of Jeopardy?'
p1277
aS'Who is the current host of Jeopardy?'
p1278
aS'What Jeopardy contestant is the biggest money-winner in television game show history?'
p1279
aS'List some contestants on Jeopardy.'
p1280
aS'Other'
p1281
aS'On what date did Jeopardy air for the first time?'
p1282
aS'Who was the first host of Jeopardy?'
p1283
aS'Who is the current host of Jeopardy?'
p1284
aS'What Jeopardy contestant is the biggest money-winner in television game show history?'
p1285
aS'List some contestants on Jeopardy.'
p1286
aS'Other'
p1287
aS'Who is the author of "Harry Potter and the Goblet of Fire"?'
p1288
aS'What is the number for "Harry Potter and the Goblet of Fire" in the series of Harry Potter books?'
p1289
aS'Into how many languages has "Harry Potter and the Goblet of Fire" been translated?'
p1290
aS'What is the name of the Wizarding Game in "Harry Potter and the Goblet of Fire"?'
p1291
aS'List names of characters in "Harry Potter and the Goblet of Fire".'
p1292
aS'Other'
p1293
aS'Who is the author of "Harry Potter and the Goblet of Fire"?'
p1294
aS'What is the number for "Harry Potter and the Goblet of Fire" in the series of Harry Potter books?'
p1295
aS'Into how many languages has "Harry Potter and the Goblet of Fire" been translated?'
p1296
aS'What is the name of the Wizarding Game in "Harry Potter and the Goblet of Fire"?'
p1297
aS'List names of characters in "Harry Potter and the Goblet of Fire".'
p1298
aS'Other'
p1299
aS'Who is the author of "Harry Potter and the Goblet of Fire"?'
p1300
aS'What is the number for "Harry Potter and the Goblet of Fire" in the series of Harry Potter books?'
p1301
aS'Into how many languages has "Harry Potter and the Goblet of Fire" been translated?'
p1302
aS'What is the name of the Wizarding Game in "Harry Potter and the Goblet of Fire"?'
p1303
aS'List names of characters in "Harry Potter and the Goblet of Fire".'
p1304
aS'Other'
p1305
aS'Who is the author of "Harry Potter and the Goblet of Fire"?'
p1306
aS'What is the number for "Harry Potter and the Goblet of Fire" in the series of Harry Potter books?'
p1307
aS'Into how many languages has "Harry Potter and the Goblet of Fire" been translated?'
p1308
aS'What is the name of the Wizarding Game in "Harry Potter and the Goblet of Fire"?'
p1309
aS'List names of characters in "Harry Potter and the Goblet of Fire".'
p1310
aS'Other'
p1311
aS'Who is the author of "Harry Potter and the Goblet of Fire"?'
p1312
aS'What is the number for "Harry Potter and the Goblet of Fire" in the series of Harry Potter books?'
p1313
aS'Into how many languages has "Harry Potter and the Goblet of Fire" been translated?'
p1314
aS'What is the name of the Wizarding Game in "Harry Potter and the Goblet of Fire"?'
p1315
aS'List names of characters in "Harry Potter and the Goblet of Fire".'
p1316
aS'Other'
p1317
aS'Who is the author of "Harry Potter and the Goblet of Fire"?'
p1318
aS'What is the number for "Harry Potter and the Goblet of Fire" in the series of Harry Potter books?'
p1319
aS'Into how many languages has "Harry Potter and the Goblet of Fire" been translated?'
p1320
aS'What is the name of the Wizarding Game in "Harry Potter and the Goblet of Fire"?'
p1321
aS'List names of characters in "Harry Potter and the Goblet of Fire".'
p1322
aS'Other'
p1323
aS"What was author Jasper Fforde's first book?"
p1324
aS'What year was his first book written?'
p1325
aS'What company published his first book?'
p1326
aS'How old was Jasper Fforde when he wrote his first Thursday Next novel?'
p1327
aS'How many books did he write in the Thursday Next series?'
p1328
aS'What books did Jasper Fforde write?'
p1329
aS'Other'
p1330
aS"What was author Jasper Fforde's first book?"
p1331
aS'What year was his first book written?'
p1332
aS'What company published his first book?'
p1333
aS'How old was Jasper Fforde when he wrote his first Thursday Next novel?'
p1334
aS'How many books did he write in the Thursday Next series?'
p1335
aS'What books did Jasper Fforde write?'
p1336
aS'Other'
p1337
aS"What was author Jasper Fforde's first book?"
p1338
aS'What year was his first book written?'
p1339
aS'What company published his first book?'
p1340
aS'How old was Jasper Fforde when he wrote his first Thursday Next novel?'
p1341
aS'How many books did he write in the Thursday Next series?'
p1342
aS'What books did Jasper Fforde write?'
p1343
aS'Other'
p1344
aS"What was author Jasper Fforde's first book?"
p1345
aS'What year was his first book written?'
p1346
aS'What company published his first book?'
p1347
aS'How old was Jasper Fforde when he wrote his first Thursday Next novel?'
p1348
aS'How many books did he write in the Thursday Next series?'
p1349
aS'What books did Jasper Fforde write?'
p1350
aS'Other'
p1351
aS"What was author Jasper Fforde's first book?"
p1352
aS'What year was his first book written?'
p1353
aS'What company published his first book?'
p1354
aS'How old was Jasper Fforde when he wrote his first Thursday Next novel?'
p1355
aS'How many books did he write in the Thursday Next series?'
p1356
aS'What books did Jasper Fforde write?'
p1357
aS'Other'
p1358
aS"What was author Jasper Fforde's first book?"
p1359
aS'What year was his first book written?'
p1360
aS'What company published his first book?'
p1361
aS'How old was Jasper Fforde when he wrote his first Thursday Next novel?'
p1362
aS'How many books did he write in the Thursday Next series?'
p1363
aS'What books did Jasper Fforde write?'
p1364
aS'Other'
p1365
aS"What was author Jasper Fforde's first book?"
p1366
aS'What year was his first book written?'
p1367
aS'What company published his first book?'
p1368
aS'How old was Jasper Fforde when he wrote his first Thursday Next novel?'
p1369
aS'How many books did he write in the Thursday Next series?'
p1370
aS'What books did Jasper Fforde write?'
p1371
aS'Other'
p1372
aS'Who was the founder of the Guinness Brewery?'
p1373
aS'In what year was the Guinness Brewery founded?'
p1374
aS'Who was the Guinness Brewmaster in 2006?'
p1375
aS'How many pints of stout a day does Guinness sell in Ireland?'
p1376
aS'What is the percent of alcohol by volume in Guinness Stout?'
p1377
aS'What other Breweries make stout beers?'
p1378
aS'Other'
p1379
aS'Who was the founder of the Guinness Brewery?'
p1380
aS'In what year was the Guinness Brewery founded?'
p1381
aS'Who was the Guinness Brewmaster in 2006?'
p1382
aS'How many pints of stout a day does Guinness sell in Ireland?'
p1383
aS'What is the percent of alcohol by volume in Guinness Stout?'
p1384
aS'What other Breweries make stout beers?'
p1385
aS'Other'
p1386
aS'Who was the founder of the Guinness Brewery?'
p1387
aS'In what year was the Guinness Brewery founded?'
p1388
aS'Who was the Guinness Brewmaster in 2006?'
p1389
aS'How many pints of stout a day does Guinness sell in Ireland?'
p1390
aS'What is the percent of alcohol by volume in Guinness Stout?'
p1391
aS'What other Breweries make stout beers?'
p1392
aS'Other'
p1393
aS'Who was the founder of the Guinness Brewery?'
p1394
aS'In what year was the Guinness Brewery founded?'
p1395
aS'Who was the Guinness Brewmaster in 2006?'
p1396
aS'How many pints of stout a day does Guinness sell in Ireland?'
p1397
aS'What is the percent of alcohol by volume in Guinness Stout?'
p1398
aS'What other Breweries make stout beers?'
p1399
aS'Other'
p1400
aS'Who was the founder of the Guinness Brewery?'
p1401
aS'In what year was the Guinness Brewery founded?'
p1402
aS'Who was the Guinness Brewmaster in 2006?'
p1403
aS'How many pints of stout a day does Guinness sell in Ireland?'
p1404
aS'What is the percent of alcohol by volume in Guinness Stout?'
p1405
aS'What other Breweries make stout beers?'
p1406
aS'Other'
p1407
aS'Who was the founder of the Guinness Brewery?'
p1408
aS'In what year was the Guinness Brewery founded?'
p1409
aS'Who was the Guinness Brewmaster in 2006?'
p1410
aS'How many pints of stout a day does Guinness sell in Ireland?'
p1411
aS'What is the percent of alcohol by volume in Guinness Stout?'
p1412
aS'What other Breweries make stout beers?'
p1413
aS'Other'
p1414
aS'Who was the founder of the Guinness Brewery?'
p1415
aS'In what year was the Guinness Brewery founded?'
p1416
aS'Who was the Guinness Brewmaster in 2006?'
p1417
aS'How many pints of stout a day does Guinness sell in Ireland?'
p1418
aS'What is the percent of alcohol by volume in Guinness Stout?'
p1419
aS'What other Breweries make stout beers?'
p1420
aS'Other'
p1421
aS'What were the names of bombing suspects in the London terrorist attacks in 2005?'
p1422
aS'On what date were the first London terror bombing attacks of 2005 carried out?'
p1423
aS'On what date was the second London terror bombing attack?'
p1424
aS'How many bombers were killed in the London terror bombing attacks?'
p1425
aS'Who many people were killed in total in the attacks?'
p1426
aS'Other'
p1427
aS'What were the names of bombing suspects in the London terrorist attacks in 2005?'
p1428
aS'On what date were the first London terror bombing attacks of 2005 carried out?'
p1429
aS'On what date was the second London terror bombing attack?'
p1430
aS'How many bombers were killed in the London terror bombing attacks?'
p1431
aS'Who many people were killed in total in the attacks?'
p1432
aS'Other'
p1433
aS'What were the names of bombing suspects in the London terrorist attacks in 2005?'
p1434
aS'On what date were the first London terror bombing attacks of 2005 carried out?'
p1435
aS'On what date was the second London terror bombing attack?'
p1436
aS'How many bombers were killed in the London terror bombing attacks?'
p1437
aS'Who many people were killed in total in the attacks?'
p1438
aS'Other'
p1439
aS'What were the names of bombing suspects in the London terrorist attacks in 2005?'
p1440
aS'On what date were the first London terror bombing attacks of 2005 carried out?'
p1441
aS'On what date was the second London terror bombing attack?'
p1442
aS'How many bombers were killed in the London terror bombing attacks?'
p1443
aS'Who many people were killed in total in the attacks?'
p1444
aS'Other'
p1445
aS'What were the names of bombing suspects in the London terrorist attacks in 2005?'
p1446
aS'On what date were the first London terror bombing attacks of 2005 carried out?'
p1447
aS'On what date was the second London terror bombing attack?'
p1448
aS'How many bombers were killed in the London terror bombing attacks?'
p1449
aS'Who many people were killed in total in the attacks?'
p1450
aS'Other'
p1451
aS'What were the names of bombing suspects in the London terrorist attacks in 2005?'
p1452
aS'On what date were the first London terror bombing attacks of 2005 carried out?'
p1453
aS'On what date was the second London terror bombing attack?'
p1454
aS'How many bombers were killed in the London terror bombing attacks?'
p1455
aS'Who many people were killed in total in the attacks?'
p1456
aS'Other'
p1457
aS"Who invented the Rubik's Cube?"
p1458
aS"Who founded the International Rubik's Cube Competition in the United States?"
p1459
aS'What was the world record time set in the 2006 competition?'
p1460
aS'What was the previous world record time?'
p1461
aS'Who is considered to be the "fastest Rubik\'s Cube solver on the planet"?'
p1462
aS"Who have set world records in solving Rubik's Cubes?"
p1463
aS'Other'
p1464
aS"Who invented the Rubik's Cube?"
p1465
aS"Who founded the International Rubik's Cube Competition in the United States?"
p1466
aS'What was the world record time set in the 2006 competition?'
p1467
aS'What was the previous world record time?'
p1468
aS'Who is considered to be the "fastest Rubik\'s Cube solver on the planet"?'
p1469
aS"Who have set world records in solving Rubik's Cubes?"
p1470
aS'Other'
p1471
aS"Who invented the Rubik's Cube?"
p1472
aS"Who founded the International Rubik's Cube Competition in the United States?"
p1473
aS'What was the world record time set in the 2006 competition?'
p1474
aS'What was the previous world record time?'
p1475
aS'Who is considered to be the "fastest Rubik\'s Cube solver on the planet"?'
p1476
aS"Who have set world records in solving Rubik's Cubes?"
p1477
aS'Other'
p1478
aS"Who invented the Rubik's Cube?"
p1479
aS"Who founded the International Rubik's Cube Competition in the United States?"
p1480
aS'What was the world record time set in the 2006 competition?'
p1481
aS'What was the previous world record time?'
p1482
aS'Who is considered to be the "fastest Rubik\'s Cube solver on the planet"?'
p1483
aS"Who have set world records in solving Rubik's Cubes?"
p1484
aS'Other'
p1485
aS"Who invented the Rubik's Cube?"
p1486
aS"Who founded the International Rubik's Cube Competition in the United States?"
p1487
aS'What was the world record time set in the 2006 competition?'
p1488
aS'What was the previous world record time?'
p1489
aS'Who is considered to be the "fastest Rubik\'s Cube solver on the planet"?'
p1490
aS"Who have set world records in solving Rubik's Cubes?"
p1491
aS'Other'
p1492
aS"Who invented the Rubik's Cube?"
p1493
aS"Who founded the International Rubik's Cube Competition in the United States?"
p1494
aS'What was the world record time set in the 2006 competition?'
p1495
aS'What was the previous world record time?'
p1496
aS'Who is considered to be the "fastest Rubik\'s Cube solver on the planet"?'
p1497
aS"Who have set world records in solving Rubik's Cubes?"
p1498
aS'Other'
p1499
aS"Who invented the Rubik's Cube?"
p1500
aS"Who founded the International Rubik's Cube Competition in the United States?"
p1501
aS'What was the world record time set in the 2006 competition?'
p1502
aS'What was the previous world record time?'
p1503
aS'Who is considered to be the "fastest Rubik\'s Cube solver on the planet"?'
p1504
aS"Who have set world records in solving Rubik's Cubes?"
p1505
aS'Other'
p1506
aS'How many new hybrid vehicles were sold in the United States in 2004?'
p1507
aS'Which automaker was the first to introduce a hybrid car?'
p1508
aS'In what year was the Prius concept car introduced?'
p1509
aS'What percentage of new car sales in the U.S. in 2004 was for hybrid cars?'
p1510
aS'Which automobile manufacturers are producing hybrid vehicles?'
p1511
aS'Other'
p1512
aS'How many new hybrid vehicles were sold in the United States in 2004?'
p1513
aS'Which automaker was the first to introduce a hybrid car?'
p1514
aS'In what year was the Prius concept car introduced?'
p1515
aS'What percentage of new car sales in the U.S. in 2004 was for hybrid cars?'
p1516
aS'Which automobile manufacturers are producing hybrid vehicles?'
p1517
aS'Other'
p1518
aS'How many new hybrid vehicles were sold in the United States in 2004?'
p1519
aS'Which automaker was the first to introduce a hybrid car?'
p1520
aS'In what year was the Prius concept car introduced?'
p1521
aS'What percentage of new car sales in the U.S. in 2004 was for hybrid cars?'
p1522
aS'Which automobile manufacturers are producing hybrid vehicles?'
p1523
aS'Other'
p1524
aS'How many new hybrid vehicles were sold in the United States in 2004?'
p1525
aS'Which automaker was the first to introduce a hybrid car?'
p1526
aS'In what year was the Prius concept car introduced?'
p1527
aS'What percentage of new car sales in the U.S. in 2004 was for hybrid cars?'
p1528
aS'Which automobile manufacturers are producing hybrid vehicles?'
p1529
aS'Other'
p1530
aS'How many new hybrid vehicles were sold in the United States in 2004?'
p1531
aS'Which automaker was the first to introduce a hybrid car?'
p1532
aS'In what year was the Prius concept car introduced?'
p1533
aS'What percentage of new car sales in the U.S. in 2004 was for hybrid cars?'
p1534
aS'Which automobile manufacturers are producing hybrid vehicles?'
p1535
aS'Other'
p1536
aS'How many new hybrid vehicles were sold in the United States in 2004?'
p1537
aS'Which automaker was the first to introduce a hybrid car?'
p1538
aS'In what year was the Prius concept car introduced?'
p1539
aS'What percentage of new car sales in the U.S. in 2004 was for hybrid cars?'
p1540
aS'Which automobile manufacturers are producing hybrid vehicles?'
p1541
aS'Other'
p1542
aS'What positions did Michael Brown hold before becoming head of FEMA?'
p1543
aS'Who preceded Brown as head of FEMA?'
p1544
aS'When did Brown start working at FEMA?'
p1545
aS'On what date did Brown resign as head of FEMA?'
p1546
aS'Who was appointed as the acting head of FEMA when Brown resigned?'
p1547
aS'Which government department was FEMA under at the time of Hurricane Katrina?'
p1548
aS'Other'
p1549
aS'What positions did Michael Brown hold before becoming head of FEMA?'
p1550
aS'Who preceded Brown as head of FEMA?'
p1551
aS'When did Brown start working at FEMA?'
p1552
aS'On what date did Brown resign as head of FEMA?'
p1553
aS'Who was appointed as the acting head of FEMA when Brown resigned?'
p1554
aS'Which government department was FEMA under at the time of Hurricane Katrina?'
p1555
aS'Other'
p1556
aS'What positions did Michael Brown hold before becoming head of FEMA?'
p1557
aS'Who preceded Brown as head of FEMA?'
p1558
aS'When did Brown start working at FEMA?'
p1559
aS'On what date did Brown resign as head of FEMA?'
p1560
aS'Who was appointed as the acting head of FEMA when Brown resigned?'
p1561
aS'Which government department was FEMA under at the time of Hurricane Katrina?'
p1562
aS'Other'
p1563
aS'What positions did Michael Brown hold before becoming head of FEMA?'
p1564
aS'Who preceded Brown as head of FEMA?'
p1565
aS'When did Brown start working at FEMA?'
p1566
aS'On what date did Brown resign as head of FEMA?'
p1567
aS'Who was appointed as the acting head of FEMA when Brown resigned?'
p1568
aS'Which government department was FEMA under at the time of Hurricane Katrina?'
p1569
aS'Other'
p1570
aS'What positions did Michael Brown hold before becoming head of FEMA?'
p1571
aS'Who preceded Brown as head of FEMA?'
p1572
aS'When did Brown start working at FEMA?'
p1573
aS'On what date did Brown resign as head of FEMA?'
p1574
aS'Who was appointed as the acting head of FEMA when Brown resigned?'
p1575
aS'Which government department was FEMA under at the time of Hurricane Katrina?'
p1576
aS'Other'
p1577
aS'What positions did Michael Brown hold before becoming head of FEMA?'
p1578
aS'Who preceded Brown as head of FEMA?'
p1579
aS'When did Brown start working at FEMA?'
p1580
aS'On what date did Brown resign as head of FEMA?'
p1581
aS'Who was appointed as the acting head of FEMA when Brown resigned?'
p1582
aS'Which government department was FEMA under at the time of Hurricane Katrina?'
p1583
aS'Other'
p1584
aS'What positions did Michael Brown hold before becoming head of FEMA?'
p1585
aS'Who preceded Brown as head of FEMA?'
p1586
aS'When did Brown start working at FEMA?'
p1587
aS'On what date did Brown resign as head of FEMA?'
p1588
aS'Who was appointed as the acting head of FEMA when Brown resigned?'
p1589
aS'Which government department was FEMA under at the time of Hurricane Katrina?'
p1590
aS'Other'
p1591
aS"What was Ella Fitzgerald's first hit record?"
p1592
aS'How old was Ella Fitzgerald when she made her first hit record?'
p1593
aS"Who was Ella Fitzgerald's husband?"
p1594
aS'What singers made recordings with Ella Fitzgerald?'
p1595
aS"What was the name of Ella Fitzgerald's Christmas record album?"
p1596
aS'In 2005 Ella Fitzgerald was inducted into what hall of fame?'
p1597
aS'What composers wrote songs that Ella Fitzgerald recorded?'
p1598
aS'Other'
p1599
aS"What was Ella Fitzgerald's first hit record?"
p1600
aS'How old was Ella Fitzgerald when she made her first hit record?'
p1601
aS"Who was Ella Fitzgerald's husband?"
p1602
aS'What singers made recordings with Ella Fitzgerald?'
p1603
aS"What was the name of Ella Fitzgerald's Christmas record album?"
p1604
aS'In 2005 Ella Fitzgerald was inducted into what hall of fame?'
p1605
aS'What composers wrote songs that Ella Fitzgerald recorded?'
p1606
aS'Other'
p1607
aS"What was Ella Fitzgerald's first hit record?"
p1608
aS'How old was Ella Fitzgerald when she made her first hit record?'
p1609
aS"Who was Ella Fitzgerald's husband?"
p1610
aS'What singers made recordings with Ella Fitzgerald?'
p1611
aS"What was the name of Ella Fitzgerald's Christmas record album?"
p1612
aS'In 2005 Ella Fitzgerald was inducted into what hall of fame?'
p1613
aS'What composers wrote songs that Ella Fitzgerald recorded?'
p1614
aS'Other'
p1615
aS"What was Ella Fitzgerald's first hit record?"
p1616
aS'How old was Ella Fitzgerald when she made her first hit record?'
p1617
aS"Who was Ella Fitzgerald's husband?"
p1618
aS'What singers made recordings with Ella Fitzgerald?'
p1619
aS"What was the name of Ella Fitzgerald's Christmas record album?"
p1620
aS'In 2005 Ella Fitzgerald was inducted into what hall of fame?'
p1621
aS'What composers wrote songs that Ella Fitzgerald recorded?'
p1622
aS'Other'
p1623
aS"What was Ella Fitzgerald's first hit record?"
p1624
aS'How old was Ella Fitzgerald when she made her first hit record?'
p1625
aS"Who was Ella Fitzgerald's husband?"
p1626
aS'What singers made recordings with Ella Fitzgerald?'
p1627
aS"What was the name of Ella Fitzgerald's Christmas record album?"
p1628
aS'In 2005 Ella Fitzgerald was inducted into what hall of fame?'
p1629
aS'What composers wrote songs that Ella Fitzgerald recorded?'
p1630
aS'Other'
p1631
aS"What was Ella Fitzgerald's first hit record?"
p1632
aS'How old was Ella Fitzgerald when she made her first hit record?'
p1633
aS"Who was Ella Fitzgerald's husband?"
p1634
aS'What singers made recordings with Ella Fitzgerald?'
p1635
aS"What was the name of Ella Fitzgerald's Christmas record album?"
p1636
aS'In 2005 Ella Fitzgerald was inducted into what hall of fame?'
p1637
aS'What composers wrote songs that Ella Fitzgerald recorded?'
p1638
aS'Other'
p1639
aS"What was Ella Fitzgerald's first hit record?"
p1640
aS'How old was Ella Fitzgerald when she made her first hit record?'
p1641
aS"Who was Ella Fitzgerald's husband?"
p1642
aS'What singers made recordings with Ella Fitzgerald?'
p1643
aS"What was the name of Ella Fitzgerald's Christmas record album?"
p1644
aS'In 2005 Ella Fitzgerald was inducted into what hall of fame?'
p1645
aS'What composers wrote songs that Ella Fitzgerald recorded?'
p1646
aS'Other'
p1647
aS"What was Ella Fitzgerald's first hit record?"
p1648
aS'How old was Ella Fitzgerald when she made her first hit record?'
p1649
aS"Who was Ella Fitzgerald's husband?"
p1650
aS'What singers made recordings with Ella Fitzgerald?'
p1651
aS"What was the name of Ella Fitzgerald's Christmas record album?"
p1652
aS'In 2005 Ella Fitzgerald was inducted into what hall of fame?'
p1653
aS'What composers wrote songs that Ella Fitzgerald recorded?'
p1654
aS'Other'
p1655
aS'What does the abbreviation CSPI stand for?'
p1656
aS"What is the name of CSPI's newsletter?"
p1657
aS'Name officers of CSPI.'
p1658
aS'What is the CSPI web site?'
p1659
aS'According to CSPI, which artificial sweetener is the safest?'
p1660
aS'What restaurant was praised by CSPI for putting nutrition information for all the items on its menus?'
p1661
aS'What restaurant chain was the subject of a complaint made by CSPI to the Food and Drug Administration?'
p1662
aS'Other'
p1663
aS'What does the abbreviation CSPI stand for?'
p1664
aS"What is the name of CSPI's newsletter?"
p1665
aS'Name officers of CSPI.'
p1666
aS'What is the CSPI web site?'
p1667
aS'According to CSPI, which artificial sweetener is the safest?'
p1668
aS'What restaurant was praised by CSPI for putting nutrition information for all the items on its menus?'
p1669
aS'What restaurant chain was the subject of a complaint made by CSPI to the Food and Drug Administration?'
p1670
aS'Other'
p1671
aS'What does the abbreviation CSPI stand for?'
p1672
aS"What is the name of CSPI's newsletter?"
p1673
aS'Name officers of CSPI.'
p1674
aS'What is the CSPI web site?'
p1675
aS'According to CSPI, which artificial sweetener is the safest?'
p1676
aS'What restaurant was praised by CSPI for putting nutrition information for all the items on its menus?'
p1677
aS'What restaurant chain was the subject of a complaint made by CSPI to the Food and Drug Administration?'
p1678
aS'Other'
p1679
aS'What does the abbreviation CSPI stand for?'
p1680
aS"What is the name of CSPI's newsletter?"
p1681
aS'Name officers of CSPI.'
p1682
aS'What is the CSPI web site?'
p1683
aS'According to CSPI, which artificial sweetener is the safest?'
p1684
aS'What restaurant was praised by CSPI for putting nutrition information for all the items on its menus?'
p1685
aS'What restaurant chain was the subject of a complaint made by CSPI to the Food and Drug Administration?'
p1686
aS'Other'
p1687
aS'What does the abbreviation CSPI stand for?'
p1688
aS"What is the name of CSPI's newsletter?"
p1689
aS'Name officers of CSPI.'
p1690
aS'What is the CSPI web site?'
p1691
aS'According to CSPI, which artificial sweetener is the safest?'
p1692
aS'What restaurant was praised by CSPI for putting nutrition information for all the items on its menus?'
p1693
aS'What restaurant chain was the subject of a complaint made by CSPI to the Food and Drug Administration?'
p1694
aS'Other'
p1695
aS'What does the abbreviation CSPI stand for?'
p1696
aS"What is the name of CSPI's newsletter?"
p1697
aS'Name officers of CSPI.'
p1698
aS'What is the CSPI web site?'
p1699
aS'According to CSPI, which artificial sweetener is the safest?'
p1700
aS'What restaurant was praised by CSPI for putting nutrition information for all the items on its menus?'
p1701
aS'What restaurant chain was the subject of a complaint made by CSPI to the Food and Drug Administration?'
p1702
aS'Other'
p1703
aS'What does the abbreviation CSPI stand for?'
p1704
aS"What is the name of CSPI's newsletter?"
p1705
aS'Name officers of CSPI.'
p1706
aS'What is the CSPI web site?'
p1707
aS'According to CSPI, which artificial sweetener is the safest?'
p1708
aS'What restaurant was praised by CSPI for putting nutrition information for all the items on its menus?'
p1709
aS'What restaurant chain was the subject of a complaint made by CSPI to the Food and Drug Administration?'
p1710
aS'Other'
p1711
aS'What does the abbreviation CSPI stand for?'
p1712
aS"What is the name of CSPI's newsletter?"
p1713
aS'Name officers of CSPI.'
p1714
aS'What is the CSPI web site?'
p1715
aS'According to CSPI, which artificial sweetener is the safest?'
p1716
aS'What restaurant was praised by CSPI for putting nutrition information for all the items on its menus?'
p1717
aS'What restaurant chain was the subject of a complaint made by CSPI to the Food and Drug Administration?'
p1718
aS'Other'
p1719
aS'What year was the Fulbright Program established?'
p1720
aS'What U.S. government entity sponsors the Fulbright Program?'
p1721
aS'What UN organization hosts internships under the Fulbright Program?'
p1722
aS'In what countries can Fulbright scholars be found?'
p1723
aS'How many grants does the Fulbright Program award each year?'
p1724
aS'How many times can a person get a Fulbright award?'
p1725
aS'What senator applied for and received a Fulbright but turned it down?'
p1726
aS'Other'
p1727
aS'What year was the Fulbright Program established?'
p1728
aS'What U.S. government entity sponsors the Fulbright Program?'
p1729
aS'What UN organization hosts internships under the Fulbright Program?'
p1730
aS'In what countries can Fulbright scholars be found?'
p1731
aS'How many grants does the Fulbright Program award each year?'
p1732
aS'How many times can a person get a Fulbright award?'
p1733
aS'What senator applied for and received a Fulbright but turned it down?'
p1734
aS'Other'
p1735
aS'What year was the Fulbright Program established?'
p1736
aS'What U.S. government entity sponsors the Fulbright Program?'
p1737
aS'What UN organization hosts internships under the Fulbright Program?'
p1738
aS'In what countries can Fulbright scholars be found?'
p1739
aS'How many grants does the Fulbright Program award each year?'
p1740
aS'How many times can a person get a Fulbright award?'
p1741
aS'What senator applied for and received a Fulbright but turned it down?'
p1742
aS'Other'
p1743
aS'What year was the Fulbright Program established?'
p1744
aS'What U.S. government entity sponsors the Fulbright Program?'
p1745
aS'What UN organization hosts internships under the Fulbright Program?'
p1746
aS'In what countries can Fulbright scholars be found?'
p1747
aS'How many grants does the Fulbright Program award each year?'
p1748
aS'How many times can a person get a Fulbright award?'
p1749
aS'What senator applied for and received a Fulbright but turned it down?'
p1750
aS'Other'
p1751
aS'What year was the Fulbright Program established?'
p1752
aS'What U.S. government entity sponsors the Fulbright Program?'
p1753
aS'What UN organization hosts internships under the Fulbright Program?'
p1754
aS'In what countries can Fulbright scholars be found?'
p1755
aS'How many grants does the Fulbright Program award each year?'
p1756
aS'How many times can a person get a Fulbright award?'
p1757
aS'What senator applied for and received a Fulbright but turned it down?'
p1758
aS'Other'
p1759
aS'What year was the Fulbright Program established?'
p1760
aS'What U.S. government entity sponsors the Fulbright Program?'
p1761
aS'What UN organization hosts internships under the Fulbright Program?'
p1762
aS'In what countries can Fulbright scholars be found?'
p1763
aS'How many grants does the Fulbright Program award each year?'
p1764
aS'How many times can a person get a Fulbright award?'
p1765
aS'What senator applied for and received a Fulbright but turned it down?'
p1766
aS'Other'
p1767
aS'What year was the Fulbright Program established?'
p1768
aS'What U.S. government entity sponsors the Fulbright Program?'
p1769
aS'What UN organization hosts internships under the Fulbright Program?'
p1770
aS'In what countries can Fulbright scholars be found?'
p1771
aS'How many grants does the Fulbright Program award each year?'
p1772
aS'How many times can a person get a Fulbright award?'
p1773
aS'What senator applied for and received a Fulbright but turned it down?'
p1774
aS'Other'
p1775
aS'What year was the Fulbright Program established?'
p1776
aS'What U.S. government entity sponsors the Fulbright Program?'
p1777
aS'What UN organization hosts internships under the Fulbright Program?'
p1778
aS'In what countries can Fulbright scholars be found?'
p1779
aS'How many grants does the Fulbright Program award each year?'
p1780
aS'How many times can a person get a Fulbright award?'
p1781
aS'What senator applied for and received a Fulbright but turned it down?'
p1782
aS'Other'
p1783
aS'What newspaper first published the cartoons?'
p1784
aS'How many cartoons were there?'
p1785
aS'In what countries were protests staged?'
p1786
aS'What earlier publication about Mohammed created protests and death threats?'
p1787
aS'What was the first U.S. newspaper to publish one of the cartoons?'
p1788
aS'What museum planned to exhibit the cartoons?'
p1789
aS'Other'
p1790
aS'What newspaper first published the cartoons?'
p1791
aS'How many cartoons were there?'
p1792
aS'In what countries were protests staged?'
p1793
aS'What earlier publication about Mohammed created protests and death threats?'
p1794
aS'What was the first U.S. newspaper to publish one of the cartoons?'
p1795
aS'What museum planned to exhibit the cartoons?'
p1796
aS'Other'
p1797
aS'What newspaper first published the cartoons?'
p1798
aS'How many cartoons were there?'
p1799
aS'In what countries were protests staged?'
p1800
aS'What earlier publication about Mohammed created protests and death threats?'
p1801
aS'What was the first U.S. newspaper to publish one of the cartoons?'
p1802
aS'What museum planned to exhibit the cartoons?'
p1803
aS'Other'
p1804
aS'What newspaper first published the cartoons?'
p1805
aS'How many cartoons were there?'
p1806
aS'In what countries were protests staged?'
p1807
aS'What earlier publication about Mohammed created protests and death threats?'
p1808
aS'What was the first U.S. newspaper to publish one of the cartoons?'
p1809
aS'What museum planned to exhibit the cartoons?'
p1810
aS'Other'
p1811
aS'What newspaper first published the cartoons?'
p1812
aS'How many cartoons were there?'
p1813
aS'In what countries were protests staged?'
p1814
aS'What earlier publication about Mohammed created protests and death threats?'
p1815
aS'What was the first U.S. newspaper to publish one of the cartoons?'
p1816
aS'What museum planned to exhibit the cartoons?'
p1817
aS'Other'
p1818
aS'What newspaper first published the cartoons?'
p1819
aS'How many cartoons were there?'
p1820
aS'In what countries were protests staged?'
p1821
aS'What earlier publication about Mohammed created protests and death threats?'
p1822
aS'What was the first U.S. newspaper to publish one of the cartoons?'
p1823
aS'What museum planned to exhibit the cartoons?'
p1824
aS'Other'
p1825
aS'What newspaper first published the cartoons?'
p1826
aS'How many cartoons were there?'
p1827
aS'In what countries were protests staged?'
p1828
aS'What earlier publication about Mohammed created protests and death threats?'
p1829
aS'What was the first U.S. newspaper to publish one of the cartoons?'
p1830
aS'What museum planned to exhibit the cartoons?'
p1831
aS'Other'
p1832
aS'In what city and state was Lyme disease first reported?'
p1833
aS'When was Lyme disease named?'
p1834
aS'What organism causes Lyme disease?'
p1835
aS'In what states is Lyme disease a problem?'
p1836
aS'What medications are used to treat Lyme disease?'
p1837
aS'What insect repellent works against the ticks that carry Lyme disease?'
p1838
aS'Other'
p1839
aS'In what city and state was Lyme disease first reported?'
p1840
aS'When was Lyme disease named?'
p1841
aS'What organism causes Lyme disease?'
p1842
aS'In what states is Lyme disease a problem?'
p1843
aS'What medications are used to treat Lyme disease?'
p1844
aS'What insect repellent works against the ticks that carry Lyme disease?'
p1845
aS'Other'
p1846
aS'In what city and state was Lyme disease first reported?'
p1847
aS'When was Lyme disease named?'
p1848
aS'What organism causes Lyme disease?'
p1849
aS'In what states is Lyme disease a problem?'
p1850
aS'What medications are used to treat Lyme disease?'
p1851
aS'What insect repellent works against the ticks that carry Lyme disease?'
p1852
aS'Other'
p1853
aS'In what city and state was Lyme disease first reported?'
p1854
aS'When was Lyme disease named?'
p1855
aS'What organism causes Lyme disease?'
p1856
aS'In what states is Lyme disease a problem?'
p1857
aS'What medications are used to treat Lyme disease?'
p1858
aS'What insect repellent works against the ticks that carry Lyme disease?'
p1859
aS'Other'
p1860
aS'In what city and state was Lyme disease first reported?'
p1861
aS'When was Lyme disease named?'
p1862
aS'What organism causes Lyme disease?'
p1863
aS'In what states is Lyme disease a problem?'
p1864
aS'What medications are used to treat Lyme disease?'
p1865
aS'What insect repellent works against the ticks that carry Lyme disease?'
p1866
aS'Other'
p1867
aS'In what city and state was Lyme disease first reported?'
p1868
aS'When was Lyme disease named?'
p1869
aS'What organism causes Lyme disease?'
p1870
aS'In what states is Lyme disease a problem?'
p1871
aS'What medications are used to treat Lyme disease?'
p1872
aS'What insect repellent works against the ticks that carry Lyme disease?'
p1873
aS'Other'
p1874
aS'In what city and state was Lyme disease first reported?'
p1875
aS'When was Lyme disease named?'
p1876
aS'What organism causes Lyme disease?'
p1877
aS'In what states is Lyme disease a problem?'
p1878
aS'What medications are used to treat Lyme disease?'
p1879
aS'What insect repellent works against the ticks that carry Lyme disease?'
p1880
aS'Other'
p1881
aS'In what year were American Girl dolls first introduced?'
p1882
aS'Name the historical dolls.'
p1883
aS'Which American Girl dolls have had TV movies made about them?'
p1884
aS'How much does an American Girl doll cost?'
p1885
aS'How many American Girl dolls have been sold?'
p1886
aS'What is the name of the American Girl store in New York?'
p1887
aS'What corporation owns the American Girl company?'
p1888
aS'Other'
p1889
aS'In what year were American Girl dolls first introduced?'
p1890
aS'Name the historical dolls.'
p1891
aS'Which American Girl dolls have had TV movies made about them?'
p1892
aS'How much does an American Girl doll cost?'
p1893
aS'How many American Girl dolls have been sold?'
p1894
aS'What is the name of the American Girl store in New York?'
p1895
aS'What corporation owns the American Girl company?'
p1896
aS'Other'
p1897
aS'In what year were American Girl dolls first introduced?'
p1898
aS'Name the historical dolls.'
p1899
aS'Which American Girl dolls have had TV movies made about them?'
p1900
aS'How much does an American Girl doll cost?'
p1901
aS'How many American Girl dolls have been sold?'
p1902
aS'What is the name of the American Girl store in New York?'
p1903
aS'What corporation owns the American Girl company?'
p1904
aS'Other'
p1905
aS'In what year were American Girl dolls first introduced?'
p1906
aS'Name the historical dolls.'
p1907
aS'Which American Girl dolls have had TV movies made about them?'
p1908
aS'How much does an American Girl doll cost?'
p1909
aS'How many American Girl dolls have been sold?'
p1910
aS'What is the name of the American Girl store in New York?'
p1911
aS'What corporation owns the American Girl company?'
p1912
aS'Other'
p1913
aS'In what year were American Girl dolls first introduced?'
p1914
aS'Name the historical dolls.'
p1915
aS'Which American Girl dolls have had TV movies made about them?'
p1916
aS'How much does an American Girl doll cost?'
p1917
aS'How many American Girl dolls have been sold?'
p1918
aS'What is the name of the American Girl store in New York?'
p1919
aS'What corporation owns the American Girl company?'
p1920
aS'Other'
p1921
aS'In what year were American Girl dolls first introduced?'
p1922
aS'Name the historical dolls.'
p1923
aS'Which American Girl dolls have had TV movies made about them?'
p1924
aS'How much does an American Girl doll cost?'
p1925
aS'How many American Girl dolls have been sold?'
p1926
aS'What is the name of the American Girl store in New York?'
p1927
aS'What corporation owns the American Girl company?'
p1928
aS'Other'
p1929
aS'In what year were American Girl dolls first introduced?'
p1930
aS'Name the historical dolls.'
p1931
aS'Which American Girl dolls have had TV movies made about them?'
p1932
aS'How much does an American Girl doll cost?'
p1933
aS'How many American Girl dolls have been sold?'
p1934
aS'What is the name of the American Girl store in New York?'
p1935
aS'What corporation owns the American Girl company?'
p1936
aS'Other'
p1937
aS'In what year were American Girl dolls first introduced?'
p1938
aS'Name the historical dolls.'
p1939
aS'Which American Girl dolls have had TV movies made about them?'
p1940
aS'How much does an American Girl doll cost?'
p1941
aS'How many American Girl dolls have been sold?'
p1942
aS'What is the name of the American Girl store in New York?'
p1943
aS'What corporation owns the American Girl company?'
p1944
aS'Other'
p1945
aS"What is the date of Kurt Weill's birth?"
p1946
aS'In what year did Kurt Weill die?'
p1947
aS'In what country was Kurt Weill born?'
p1948
aS'What musicals did Kurt Weill write?'
p1949
aS"Who was Kurt Weill's wife?"
p1950
aS'With whom did Kurt Weill collaborate?'
p1951
aS'For which Kurt Weill song did Bobby Darin receive a Grammy award?'
p1952
aS'Other'
p1953
aS"What is the date of Kurt Weill's birth?"
p1954
aS'In what year did Kurt Weill die?'
p1955
aS'In what country was Kurt Weill born?'
p1956
aS'What musicals did Kurt Weill write?'
p1957
aS"Who was Kurt Weill's wife?"
p1958
aS'With whom did Kurt Weill collaborate?'
p1959
aS'For which Kurt Weill song did Bobby Darin receive a Grammy award?'
p1960
aS'Other'
p1961
aS"What is the date of Kurt Weill's birth?"
p1962
aS'In what year did Kurt Weill die?'
p1963
aS'In what country was Kurt Weill born?'
p1964
aS'What musicals did Kurt Weill write?'
p1965
aS"Who was Kurt Weill's wife?"
p1966
aS'With whom did Kurt Weill collaborate?'
p1967
aS'For which Kurt Weill song did Bobby Darin receive a Grammy award?'
p1968
aS'Other'
p1969
aS"What is the date of Kurt Weill's birth?"
p1970
aS'In what year did Kurt Weill die?'
p1971
aS'In what country was Kurt Weill born?'
p1972
aS'What musicals did Kurt Weill write?'
p1973
aS"Who was Kurt Weill's wife?"
p1974
aS'With whom did Kurt Weill collaborate?'
p1975
aS'For which Kurt Weill song did Bobby Darin receive a Grammy award?'
p1976
aS'Other'
p1977
aS"What is the date of Kurt Weill's birth?"
p1978
aS'In what year did Kurt Weill die?'
p1979
aS'In what country was Kurt Weill born?'
p1980
aS'What musicals did Kurt Weill write?'
p1981
aS"Who was Kurt Weill's wife?"
p1982
aS'With whom did Kurt Weill collaborate?'
p1983
aS'For which Kurt Weill song did Bobby Darin receive a Grammy award?'
p1984
aS'Other'
p1985
aS"What is the date of Kurt Weill's birth?"
p1986
aS'In what year did Kurt Weill die?'
p1987
aS'In what country was Kurt Weill born?'
p1988
aS'What musicals did Kurt Weill write?'
p1989
aS"Who was Kurt Weill's wife?"
p1990
aS'With whom did Kurt Weill collaborate?'
p1991
aS'For which Kurt Weill song did Bobby Darin receive a Grammy award?'
p1992
aS'Other'
p1993
aS"What is the date of Kurt Weill's birth?"
p1994
aS'In what year did Kurt Weill die?'
p1995
aS'In what country was Kurt Weill born?'
p1996
aS'What musicals did Kurt Weill write?'
p1997
aS"Who was Kurt Weill's wife?"
p1998
aS'With whom did Kurt Weill collaborate?'
p1999
aS'For which Kurt Weill song did Bobby Darin receive a Grammy award?'
p2000
aS'Other'
p2001
aS"What is the date of Kurt Weill's birth?"
p2002
aS'In what year did Kurt Weill die?'
p2003
aS'In what country was Kurt Weill born?'
p2004
aS'What musicals did Kurt Weill write?'
p2005
aS"Who was Kurt Weill's wife?"
p2006
aS'With whom did Kurt Weill collaborate?'
p2007
aS'For which Kurt Weill song did Bobby Darin receive a Grammy award?'
p2008
aS'Other'
p2009
aS'Who founded the House of Chanel?'
p2010
aS'In what year was the company founded?'
p2011
aS'Who is the president of the House of Chanel?'
p2012
aS'Who took over the House of Chanel in 1983?'
p2013
aS'What women have worn Chanel clothing to award ceremonies?'
p2014
aS'What museums have displayed Chanel clothing?'
p2015
aS'What Chanel creation is the top-selling fragrance in the world?'
p2016
aS'Other'
p2017
aS'Who founded the House of Chanel?'
p2018
aS'In what year was the company founded?'
p2019
aS'Who is the president of the House of Chanel?'
p2020
aS'Who took over the House of Chanel in 1983?'
p2021
aS'What women have worn Chanel clothing to award ceremonies?'
p2022
aS'What museums have displayed Chanel clothing?'
p2023
aS'What Chanel creation is the top-selling fragrance in the world?'
p2024
aS'Other'
p2025
aS'Who founded the House of Chanel?'
p2026
aS'In what year was the company founded?'
p2027
aS'Who is the president of the House of Chanel?'
p2028
aS'Who took over the House of Chanel in 1983?'
p2029
aS'What women have worn Chanel clothing to award ceremonies?'
p2030
aS'What museums have displayed Chanel clothing?'
p2031
aS'What Chanel creation is the top-selling fragrance in the world?'
p2032
aS'Other'
p2033
aS'Who founded the House of Chanel?'
p2034
aS'In what year was the company founded?'
p2035
aS'Who is the president of the House of Chanel?'
p2036
aS'Who took over the House of Chanel in 1983?'
p2037
aS'What women have worn Chanel clothing to award ceremonies?'
p2038
aS'What museums have displayed Chanel clothing?'
p2039
aS'What Chanel creation is the top-selling fragrance in the world?'
p2040
aS'Other'
p2041
aS'Who founded the House of Chanel?'
p2042
aS'In what year was the company founded?'
p2043
aS'Who is the president of the House of Chanel?'
p2044
aS'Who took over the House of Chanel in 1983?'
p2045
aS'What women have worn Chanel clothing to award ceremonies?'
p2046
aS'What museums have displayed Chanel clothing?'
p2047
aS'What Chanel creation is the top-selling fragrance in the world?'
p2048
aS'Other'
p2049
aS'Who founded the House of Chanel?'
p2050
aS'In what year was the company founded?'
p2051
aS'Who is the president of the House of Chanel?'
p2052
aS'Who took over the House of Chanel in 1983?'
p2053
aS'What women have worn Chanel clothing to award ceremonies?'
p2054
aS'What museums have displayed Chanel clothing?'
p2055
aS'What Chanel creation is the top-selling fragrance in the world?'
p2056
aS'Other'
p2057
aS'Who founded the House of Chanel?'
p2058
aS'In what year was the company founded?'
p2059
aS'Who is the president of the House of Chanel?'
p2060
aS'Who took over the House of Chanel in 1983?'
p2061
aS'What women have worn Chanel clothing to award ceremonies?'
p2062
aS'What museums have displayed Chanel clothing?'
p2063
aS'What Chanel creation is the top-selling fragrance in the world?'
p2064
aS'Other'
p2065
aS'Who founded the House of Chanel?'
p2066
aS'In what year was the company founded?'
p2067
aS'Who is the president of the House of Chanel?'
p2068
aS'Who took over the House of Chanel in 1983?'
p2069
aS'What women have worn Chanel clothing to award ceremonies?'
p2070
aS'What museums have displayed Chanel clothing?'
p2071
aS'What Chanel creation is the top-selling fragrance in the world?'
p2072
aS'Other'
p2073
aS'Who is the chairman of BAT?'
p2074
aS"In what city are BAT's headquarters?"
p2075
aS'What brands of cigarettes does BAT manufacture?'
p2076
aS'How many people does BAT employ?'
p2077
aS'What companies has BAT owned?'
p2078
aS'What public health group did BAT help fund?'
p2079
aS'Other'
p2080
aS'Who is the chairman of BAT?'
p2081
aS"In what city are BAT's headquarters?"
p2082
aS'What brands of cigarettes does BAT manufacture?'
p2083
aS'How many people does BAT employ?'
p2084
aS'What companies has BAT owned?'
p2085
aS'What public health group did BAT help fund?'
p2086
aS'Other'
p2087
aS'Who is the chairman of BAT?'
p2088
aS"In what city are BAT's headquarters?"
p2089
aS'What brands of cigarettes does BAT manufacture?'
p2090
aS'How many people does BAT employ?'
p2091
aS'What companies has BAT owned?'
p2092
aS'What public health group did BAT help fund?'
p2093
aS'Other'
p2094
aS'Who is the chairman of BAT?'
p2095
aS"In what city are BAT's headquarters?"
p2096
aS'What brands of cigarettes does BAT manufacture?'
p2097
aS'How many people does BAT employ?'
p2098
aS'What companies has BAT owned?'
p2099
aS'What public health group did BAT help fund?'
p2100
aS'Other'
p2101
aS'Who is the chairman of BAT?'
p2102
aS"In what city are BAT's headquarters?"
p2103
aS'What brands of cigarettes does BAT manufacture?'
p2104
aS'How many people does BAT employ?'
p2105
aS'What companies has BAT owned?'
p2106
aS'What public health group did BAT help fund?'
p2107
aS'Other'
p2108
aS'Who is the chairman of BAT?'
p2109
aS"In what city are BAT's headquarters?"
p2110
aS'What brands of cigarettes does BAT manufacture?'
p2111
aS'How many people does BAT employ?'
p2112
aS'What companies has BAT owned?'
p2113
aS'What public health group did BAT help fund?'
p2114
aS'Other'
p2115
aS'Who is the chairman of BAT?'
p2116
aS"In what city are BAT's headquarters?"
p2117
aS'What brands of cigarettes does BAT manufacture?'
p2118
aS'How many people does BAT employ?'
p2119
aS'What companies has BAT owned?'
p2120
aS'What public health group did BAT help fund?'
p2121
aS'Other'
p2122
aS'When were the Buffalo Soldiers organized?'
p2123
aS'What ethnicity were the Buffalo Soldiers?'
p2124
aS"What part of the Soldiers' anatomy reminded the Indians of the buffalo?"
p2125
aS'Name members of the Buffalo Soldiers.'
p2126
aS'In what year were the Buffalo Soldier regiments merged with the integrated army?'
p2127
aS'In what year were the Buffalo Soldier regiments disbanded?'
p2128
aS'In which state did the Buffalo Soldiers protect National Parks?'
p2129
aS'Other'
p2130
aS'When were the Buffalo Soldiers organized?'
p2131
aS'What ethnicity were the Buffalo Soldiers?'
p2132
aS"What part of the Soldiers' anatomy reminded the Indians of the buffalo?"
p2133
aS'Name members of the Buffalo Soldiers.'
p2134
aS'In what year were the Buffalo Soldier regiments merged with the integrated army?'
p2135
aS'In what year were the Buffalo Soldier regiments disbanded?'
p2136
aS'In which state did the Buffalo Soldiers protect National Parks?'
p2137
aS'Other'
p2138
aS'When were the Buffalo Soldiers organized?'
p2139
aS'What ethnicity were the Buffalo Soldiers?'
p2140
aS"What part of the Soldiers' anatomy reminded the Indians of the buffalo?"
p2141
aS'Name members of the Buffalo Soldiers.'
p2142
aS'In what year were the Buffalo Soldier regiments merged with the integrated army?'
p2143
aS'In what year were the Buffalo Soldier regiments disbanded?'
p2144
aS'In which state did the Buffalo Soldiers protect National Parks?'
p2145
aS'Other'
p2146
aS'When were the Buffalo Soldiers organized?'
p2147
aS'What ethnicity were the Buffalo Soldiers?'
p2148
aS"What part of the Soldiers' anatomy reminded the Indians of the buffalo?"
p2149
aS'Name members of the Buffalo Soldiers.'
p2150
aS'In what year were the Buffalo Soldier regiments merged with the integrated army?'
p2151
aS'In what year were the Buffalo Soldier regiments disbanded?'
p2152
aS'In which state did the Buffalo Soldiers protect National Parks?'
p2153
aS'Other'
p2154
aS'When were the Buffalo Soldiers organized?'
p2155
aS'What ethnicity were the Buffalo Soldiers?'
p2156
aS"What part of the Soldiers' anatomy reminded the Indians of the buffalo?"
p2157
aS'Name members of the Buffalo Soldiers.'
p2158
aS'In what year were the Buffalo Soldier regiments merged with the integrated army?'
p2159
aS'In what year were the Buffalo Soldier regiments disbanded?'
p2160
aS'In which state did the Buffalo Soldiers protect National Parks?'
p2161
aS'Other'
p2162
aS'When were the Buffalo Soldiers organized?'
p2163
aS'What ethnicity were the Buffalo Soldiers?'
p2164
aS"What part of the Soldiers' anatomy reminded the Indians of the buffalo?"
p2165
aS'Name members of the Buffalo Soldiers.'
p2166
aS'In what year were the Buffalo Soldier regiments merged with the integrated army?'
p2167
aS'In what year were the Buffalo Soldier regiments disbanded?'
p2168
aS'In which state did the Buffalo Soldiers protect National Parks?'
p2169
aS'Other'
p2170
aS'When were the Buffalo Soldiers organized?'
p2171
aS'What ethnicity were the Buffalo Soldiers?'
p2172
aS"What part of the Soldiers' anatomy reminded the Indians of the buffalo?"
p2173
aS'Name members of the Buffalo Soldiers.'
p2174
aS'In what year were the Buffalo Soldier regiments merged with the integrated army?'
p2175
aS'In what year were the Buffalo Soldier regiments disbanded?'
p2176
aS'In which state did the Buffalo Soldiers protect National Parks?'
p2177
aS'Other'
p2178
aS'When were the Buffalo Soldiers organized?'
p2179
aS'What ethnicity were the Buffalo Soldiers?'
p2180
aS"What part of the Soldiers' anatomy reminded the Indians of the buffalo?"
p2181
aS'Name members of the Buffalo Soldiers.'
p2182
aS'In what year were the Buffalo Soldier regiments merged with the integrated army?'
p2183
aS'In what year were the Buffalo Soldier regiments disbanded?'
p2184
aS'In which state did the Buffalo Soldiers protect National Parks?'
p2185
aS'Other'
p2186
aS'What does the acronym DARPA stand for?'
p2187
aS'In what city and state did the Challenge finals race take place?'
p2188
aS'How many vehicles took part in the Challenge?'
p2189
aS'What makes of vehicles participated in the Challenge, including semi-finals?'
p2190
aS'What was the make of the winning vehicle?'
p2191
aS'What was the name of the fuel the winner used?'
p2192
aS'At what government agency were the winning vehicles on display?'
p2193
aS'Other'
p2194
aS'What does the acronym DARPA stand for?'
p2195
aS'In what city and state did the Challenge finals race take place?'
p2196
aS'How many vehicles took part in the Challenge?'
p2197
aS'What makes of vehicles participated in the Challenge, including semi-finals?'
p2198
aS'What was the make of the winning vehicle?'
p2199
aS'What was the name of the fuel the winner used?'
p2200
aS'At what government agency were the winning vehicles on display?'
p2201
aS'Other'
p2202
aS'What does the acronym DARPA stand for?'
p2203
aS'In what city and state did the Challenge finals race take place?'
p2204
aS'How many vehicles took part in the Challenge?'
p2205
aS'What makes of vehicles participated in the Challenge, including semi-finals?'
p2206
aS'What was the make of the winning vehicle?'
p2207
aS'What was the name of the fuel the winner used?'
p2208
aS'At what government agency were the winning vehicles on display?'
p2209
aS'Other'
p2210
aS'What does the acronym DARPA stand for?'
p2211
aS'In what city and state did the Challenge finals race take place?'
p2212
aS'How many vehicles took part in the Challenge?'
p2213
aS'What makes of vehicles participated in the Challenge, including semi-finals?'
p2214
aS'What was the make of the winning vehicle?'
p2215
aS'What was the name of the fuel the winner used?'
p2216
aS'At what government agency were the winning vehicles on display?'
p2217
aS'Other'
p2218
aS'What does the acronym DARPA stand for?'
p2219
aS'In what city and state did the Challenge finals race take place?'
p2220
aS'How many vehicles took part in the Challenge?'
p2221
aS'What makes of vehicles participated in the Challenge, including semi-finals?'
p2222
aS'What was the make of the winning vehicle?'
p2223
aS'What was the name of the fuel the winner used?'
p2224
aS'At what government agency were the winning vehicles on display?'
p2225
aS'Other'
p2226
aS'What does the acronym DARPA stand for?'
p2227
aS'In what city and state did the Challenge finals race take place?'
p2228
aS'How many vehicles took part in the Challenge?'
p2229
aS'What makes of vehicles participated in the Challenge, including semi-finals?'
p2230
aS'What was the make of the winning vehicle?'
p2231
aS'What was the name of the fuel the winner used?'
p2232
aS'At what government agency were the winning vehicles on display?'
p2233
aS'Other'
p2234
aS'What does the acronym DARPA stand for?'
p2235
aS'In what city and state did the Challenge finals race take place?'
p2236
aS'How many vehicles took part in the Challenge?'
p2237
aS'What makes of vehicles participated in the Challenge, including semi-finals?'
p2238
aS'What was the make of the winning vehicle?'
p2239
aS'What was the name of the fuel the winner used?'
p2240
aS'At what government agency were the winning vehicles on display?'
p2241
aS'Other'
p2242
aS'What does the acronym DARPA stand for?'
p2243
aS'In what city and state did the Challenge finals race take place?'
p2244
aS'How many vehicles took part in the Challenge?'
p2245
aS'What makes of vehicles participated in the Challenge, including semi-finals?'
p2246
aS'What was the make of the winning vehicle?'
p2247
aS'What was the name of the fuel the winner used?'
p2248
aS'At what government agency were the winning vehicles on display?'
p2249
aS'Other'
p2250
aS'On what date was the presidential election held?'
p2251
aS'What was the percentage of turnout for the election?'
p2252
aS'How many candidates ran for president?'
p2253
aS'Who won the presidential election?'
p2254
aS'What percentage of the votes did the winner receive?'
p2255
aS'How much did a poster of the winning candidate cost?'
p2256
aS'What international leaders sent or gave congratulations?'
p2257
aS'Which of the candidates was arrested for forgery?'
p2258
aS'Other'
p2259
aS'On what date was the presidential election held?'
p2260
aS'What was the percentage of turnout for the election?'
p2261
aS'How many candidates ran for president?'
p2262
aS'Who won the presidential election?'
p2263
aS'What percentage of the votes did the winner receive?'
p2264
aS'How much did a poster of the winning candidate cost?'
p2265
aS'What international leaders sent or gave congratulations?'
p2266
aS'Which of the candidates was arrested for forgery?'
p2267
aS'Other'
p2268
aS'On what date was the presidential election held?'
p2269
aS'What was the percentage of turnout for the election?'
p2270
aS'How many candidates ran for president?'
p2271
aS'Who won the presidential election?'
p2272
aS'What percentage of the votes did the winner receive?'
p2273
aS'How much did a poster of the winning candidate cost?'
p2274
aS'What international leaders sent or gave congratulations?'
p2275
aS'Which of the candidates was arrested for forgery?'
p2276
aS'Other'
p2277
aS'On what date was the presidential election held?'
p2278
aS'What was the percentage of turnout for the election?'
p2279
aS'How many candidates ran for president?'
p2280
aS'Who won the presidential election?'
p2281
aS'What percentage of the votes did the winner receive?'
p2282
aS'How much did a poster of the winning candidate cost?'
p2283
aS'What international leaders sent or gave congratulations?'
p2284
aS'Which of the candidates was arrested for forgery?'
p2285
aS'Other'
p2286
aS'On what date was the presidential election held?'
p2287
aS'What was the percentage of turnout for the election?'
p2288
aS'How many candidates ran for president?'
p2289
aS'Who won the presidential election?'
p2290
aS'What percentage of the votes did the winner receive?'
p2291
aS'How much did a poster of the winning candidate cost?'
p2292
aS'What international leaders sent or gave congratulations?'
p2293
aS'Which of the candidates was arrested for forgery?'
p2294
aS'Other'
p2295
aS'On what date was the presidential election held?'
p2296
aS'What was the percentage of turnout for the election?'
p2297
aS'How many candidates ran for president?'
p2298
aS'Who won the presidential election?'
p2299
aS'What percentage of the votes did the winner receive?'
p2300
aS'How much did a poster of the winning candidate cost?'
p2301
aS'What international leaders sent or gave congratulations?'
p2302
aS'Which of the candidates was arrested for forgery?'
p2303
aS'Other'
p2304
aS'On what date was the presidential election held?'
p2305
aS'What was the percentage of turnout for the election?'
p2306
aS'How many candidates ran for president?'
p2307
aS'Who won the presidential election?'
p2308
aS'What percentage of the votes did the winner receive?'
p2309
aS'How much did a poster of the winning candidate cost?'
p2310
aS'What international leaders sent or gave congratulations?'
p2311
aS'Which of the candidates was arrested for forgery?'
p2312
aS'Other'
p2313
aS'On what date was the presidential election held?'
p2314
aS'What was the percentage of turnout for the election?'
p2315
aS'How many candidates ran for president?'
p2316
aS'Who won the presidential election?'
p2317
aS'What percentage of the votes did the winner receive?'
p2318
aS'How much did a poster of the winning candidate cost?'
p2319
aS'What international leaders sent or gave congratulations?'
p2320
aS'Which of the candidates was arrested for forgery?'
p2321
aS'Other'
p2322
aS'On what date was the presidential election held?'
p2323
aS'What was the percentage of turnout for the election?'
p2324
aS'How many candidates ran for president?'
p2325
aS'Who won the presidential election?'
p2326
aS'What percentage of the votes did the winner receive?'
p2327
aS'How much did a poster of the winning candidate cost?'
p2328
aS'What international leaders sent or gave congratulations?'
p2329
aS'Which of the candidates was arrested for forgery?'
p2330
aS'Other'
p2331
aS'In what city were the 2005 World Snooker Championships held?'
p2332
aS'In what building was the 2005 World Snooker Championships held?'
p2333
aS'In what month did the 2005 Snooker World Championship start?'
p2334
aS'Name the participants in the 2005 World Snooker Championships.'
p2335
aS'Who won the 2005 Snooker World Championship?'
p2336
aS'How many World Snooker tournaments are there annually?'
p2337
aS'Name the World Snooker tournaments.'
p2338
aS'Who is the reigning superstar of snooker?'
p2339
aS'Other'
p2340
aS'In what city were the 2005 World Snooker Championships held?'
p2341
aS'In what building was the 2005 World Snooker Championships held?'
p2342
aS'In what month did the 2005 Snooker World Championship start?'
p2343
aS'Name the participants in the 2005 World Snooker Championships.'
p2344
aS'Who won the 2005 Snooker World Championship?'
p2345
aS'How many World Snooker tournaments are there annually?'
p2346
aS'Name the World Snooker tournaments.'
p2347
aS'Who is the reigning superstar of snooker?'
p2348
aS'Other'
p2349
aS'In what city were the 2005 World Snooker Championships held?'
p2350
aS'In what building was the 2005 World Snooker Championships held?'
p2351
aS'In what month did the 2005 Snooker World Championship start?'
p2352
aS'Name the participants in the 2005 World Snooker Championships.'
p2353
aS'Who won the 2005 Snooker World Championship?'
p2354
aS'How many World Snooker tournaments are there annually?'
p2355
aS'Name the World Snooker tournaments.'
p2356
aS'Who is the reigning superstar of snooker?'
p2357
aS'Other'
p2358
aS'In what city were the 2005 World Snooker Championships held?'
p2359
aS'In what building was the 2005 World Snooker Championships held?'
p2360
aS'In what month did the 2005 Snooker World Championship start?'
p2361
aS'Name the participants in the 2005 World Snooker Championships.'
p2362
aS'Who won the 2005 Snooker World Championship?'
p2363
aS'How many World Snooker tournaments are there annually?'
p2364
aS'Name the World Snooker tournaments.'
p2365
aS'Who is the reigning superstar of snooker?'
p2366
aS'Other'
p2367
aS'In what city were the 2005 World Snooker Championships held?'
p2368
aS'In what building was the 2005 World Snooker Championships held?'
p2369
aS'In what month did the 2005 Snooker World Championship start?'
p2370
aS'Name the participants in the 2005 World Snooker Championships.'
p2371
aS'Who won the 2005 Snooker World Championship?'
p2372
aS'How many World Snooker tournaments are there annually?'
p2373
aS'Name the World Snooker tournaments.'
p2374
aS'Who is the reigning superstar of snooker?'
p2375
aS'Other'
p2376
aS'In what city were the 2005 World Snooker Championships held?'
p2377
aS'In what building was the 2005 World Snooker Championships held?'
p2378
aS'In what month did the 2005 Snooker World Championship start?'
p2379
aS'Name the participants in the 2005 World Snooker Championships.'
p2380
aS'Who won the 2005 Snooker World Championship?'
p2381
aS'How many World Snooker tournaments are there annually?'
p2382
aS'Name the World Snooker tournaments.'
p2383
aS'Who is the reigning superstar of snooker?'
p2384
aS'Other'
p2385
aS'In what city were the 2005 World Snooker Championships held?'
p2386
aS'In what building was the 2005 World Snooker Championships held?'
p2387
aS'In what month did the 2005 Snooker World Championship start?'
p2388
aS'Name the participants in the 2005 World Snooker Championships.'
p2389
aS'Who won the 2005 Snooker World Championship?'
p2390
aS'How many World Snooker tournaments are there annually?'
p2391
aS'Name the World Snooker tournaments.'
p2392
aS'Who is the reigning superstar of snooker?'
p2393
aS'Other'
p2394
aS'In what city were the 2005 World Snooker Championships held?'
p2395
aS'In what building was the 2005 World Snooker Championships held?'
p2396
aS'In what month did the 2005 Snooker World Championship start?'
p2397
aS'Name the participants in the 2005 World Snooker Championships.'
p2398
aS'Who won the 2005 Snooker World Championship?'
p2399
aS'How many World Snooker tournaments are there annually?'
p2400
aS'Name the World Snooker tournaments.'
p2401
aS'Who is the reigning superstar of snooker?'
p2402
aS'Other'
p2403
aS'In what city were the 2005 World Snooker Championships held?'
p2404
aS'In what building was the 2005 World Snooker Championships held?'
p2405
aS'In what month did the 2005 Snooker World Championship start?'
p2406
aS'Name the participants in the 2005 World Snooker Championships.'
p2407
aS'Who won the 2005 Snooker World Championship?'
p2408
aS'How many World Snooker tournaments are there annually?'
p2409
aS'Name the World Snooker tournaments.'
p2410
aS'Who is the reigning superstar of snooker?'
p2411
aS'Other'
p2412
aS'What were the names of characters in the TMNT stories?'
p2413
aS'How many Ninja Turtles were there?'
p2414
aS'What food did they eat?'
p2415
aS'What television network carried TMNT?'
p2416
aS'In what year did the first TMNT movie come out?'
p2417
aS'Including the planned 2007 movie, how many TMNT movies have there been?'
p2418
aS'What state-of-the-art technique is being used for the newest TMNT movie?'
p2419
aS'Other'
p2420
aS'What were the names of characters in the TMNT stories?'
p2421
aS'How many Ninja Turtles were there?'
p2422
aS'What food did they eat?'
p2423
aS'What television network carried TMNT?'
p2424
aS'In what year did the first TMNT movie come out?'
p2425
aS'Including the planned 2007 movie, how many TMNT movies have there been?'
p2426
aS'What state-of-the-art technique is being used for the newest TMNT movie?'
p2427
aS'Other'
p2428
aS'What were the names of characters in the TMNT stories?'
p2429
aS'How many Ninja Turtles were there?'
p2430
aS'What food did they eat?'
p2431
aS'What television network carried TMNT?'
p2432
aS'In what year did the first TMNT movie come out?'
p2433
aS'Including the planned 2007 movie, how many TMNT movies have there been?'
p2434
aS'What state-of-the-art technique is being used for the newest TMNT movie?'
p2435
aS'Other'
p2436
aS'What were the names of characters in the TMNT stories?'
p2437
aS'How many Ninja Turtles were there?'
p2438
aS'What food did they eat?'
p2439
aS'What television network carried TMNT?'
p2440
aS'In what year did the first TMNT movie come out?'
p2441
aS'Including the planned 2007 movie, how many TMNT movies have there been?'
p2442
aS'What state-of-the-art technique is being used for the newest TMNT movie?'
p2443
aS'Other'
p2444
aS'What were the names of characters in the TMNT stories?'
p2445
aS'How many Ninja Turtles were there?'
p2446
aS'What food did they eat?'
p2447
aS'What television network carried TMNT?'
p2448
aS'In what year did the first TMNT movie come out?'
p2449
aS'Including the planned 2007 movie, how many TMNT movies have there been?'
p2450
aS'What state-of-the-art technique is being used for the newest TMNT movie?'
p2451
aS'Other'
p2452
aS'What were the names of characters in the TMNT stories?'
p2453
aS'How many Ninja Turtles were there?'
p2454
aS'What food did they eat?'
p2455
aS'What television network carried TMNT?'
p2456
aS'In what year did the first TMNT movie come out?'
p2457
aS'Including the planned 2007 movie, how many TMNT movies have there been?'
p2458
aS'What state-of-the-art technique is being used for the newest TMNT movie?'
p2459
aS'Other'
p2460
aS'What were the names of characters in the TMNT stories?'
p2461
aS'How many Ninja Turtles were there?'
p2462
aS'What food did they eat?'
p2463
aS'What television network carried TMNT?'
p2464
aS'In what year did the first TMNT movie come out?'
p2465
aS'Including the planned 2007 movie, how many TMNT movies have there been?'
p2466
aS'What state-of-the-art technique is being used for the newest TMNT movie?'
p2467
aS'Other'
p2468
aS'What were the names of characters in the TMNT stories?'
p2469
aS'How many Ninja Turtles were there?'
p2470
aS'What food did they eat?'
p2471
aS'What television network carried TMNT?'
p2472
aS'In what year did the first TMNT movie come out?'
p2473
aS'Including the planned 2007 movie, how many TMNT movies have there been?'
p2474
aS'What state-of-the-art technique is being used for the newest TMNT movie?'
p2475
aS'Other'
p2476
aS'In what do marsupials keep their young?'
p2477
aS'What non-extinct animals are marsupials?'
p2478
aS'What is the largest meat-eating marsupial?'
p2479
aS'What marsupial is found outside of Australia?'
p2480
aS'What can be made from marsupial manure?'
p2481
aS'What cartoon character is based on a marsupial?'
p2482
aS'The extinct Tasmanian tiger is known by what other name?'
p2483
aS'Other'
p2484
aS'In what do marsupials keep their young?'
p2485
aS'What non-extinct animals are marsupials?'
p2486
aS'What is the largest meat-eating marsupial?'
p2487
aS'What marsupial is found outside of Australia?'
p2488
aS'What can be made from marsupial manure?'
p2489
aS'What cartoon character is based on a marsupial?'
p2490
aS'The extinct Tasmanian tiger is known by what other name?'
p2491
aS'Other'
p2492
aS'In what do marsupials keep their young?'
p2493
aS'What non-extinct animals are marsupials?'
p2494
aS'What is the largest meat-eating marsupial?'
p2495
aS'What marsupial is found outside of Australia?'
p2496
aS'What can be made from marsupial manure?'
p2497
aS'What cartoon character is based on a marsupial?'
p2498
aS'The extinct Tasmanian tiger is known by what other name?'
p2499
aS'Other'
p2500
aS'In what do marsupials keep their young?'
p2501
aS'What non-extinct animals are marsupials?'
p2502
aS'What is the largest meat-eating marsupial?'
p2503
aS'What marsupial is found outside of Australia?'
p2504
aS'What can be made from marsupial manure?'
p2505
aS'What cartoon character is based on a marsupial?'
p2506
aS'The extinct Tasmanian tiger is known by what other name?'
p2507
aS'Other'
p2508
aS'In what do marsupials keep their young?'
p2509
aS'What non-extinct animals are marsupials?'
p2510
aS'What is the largest meat-eating marsupial?'
p2511
aS'What marsupial is found outside of Australia?'
p2512
aS'What can be made from marsupial manure?'
p2513
aS'What cartoon character is based on a marsupial?'
p2514
aS'The extinct Tasmanian tiger is known by what other name?'
p2515
aS'Other'
p2516
aS'In what do marsupials keep their young?'
p2517
aS'What non-extinct animals are marsupials?'
p2518
aS'What is the largest meat-eating marsupial?'
p2519
aS'What marsupial is found outside of Australia?'
p2520
aS'What can be made from marsupial manure?'
p2521
aS'What cartoon character is based on a marsupial?'
p2522
aS'The extinct Tasmanian tiger is known by what other name?'
p2523
aS'Other'
p2524
aS'In what do marsupials keep their young?'
p2525
aS'What non-extinct animals are marsupials?'
p2526
aS'What is the largest meat-eating marsupial?'
p2527
aS'What marsupial is found outside of Australia?'
p2528
aS'What can be made from marsupial manure?'
p2529
aS'What cartoon character is based on a marsupial?'
p2530
aS'The extinct Tasmanian tiger is known by what other name?'
p2531
aS'Other'
p2532
aS'In what do marsupials keep their young?'
p2533
aS'What non-extinct animals are marsupials?'
p2534
aS'What is the largest meat-eating marsupial?'
p2535
aS'What marsupial is found outside of Australia?'
p2536
aS'What can be made from marsupial manure?'
p2537
aS'What cartoon character is based on a marsupial?'
p2538
aS'The extinct Tasmanian tiger is known by what other name?'
p2539
aS'Other'
p2540
aS'What type of produce is a kumquat?'
p2541
aS'What is the genus of kumquat?'
p2542
aS'What color is a kumquat?'
p2543
aS'What is the diameter of a kumquat?'
p2544
aS'Outside the US, in what countries can kumquat trees be found?'
p2545
aS'In which continent did Kumquat trees originate?'
p2546
aS'What holiday are kumquat trees associated with?'
p2547
aS'Other'
p2548
aS'What type of produce is a kumquat?'
p2549
aS'What is the genus of kumquat?'
p2550
aS'What color is a kumquat?'
p2551
aS'What is the diameter of a kumquat?'
p2552
aS'Outside the US, in what countries can kumquat trees be found?'
p2553
aS'In which continent did Kumquat trees originate?'
p2554
aS'What holiday are kumquat trees associated with?'
p2555
aS'Other'
p2556
aS'What type of produce is a kumquat?'
p2557
aS'What is the genus of kumquat?'
p2558
aS'What color is a kumquat?'
p2559
aS'What is the diameter of a kumquat?'
p2560
aS'Outside the US, in what countries can kumquat trees be found?'
p2561
aS'In which continent did Kumquat trees originate?'
p2562
aS'What holiday are kumquat trees associated with?'
p2563
aS'Other'
p2564
aS'What type of produce is a kumquat?'
p2565
aS'What is the genus of kumquat?'
p2566
aS'What color is a kumquat?'
p2567
aS'What is the diameter of a kumquat?'
p2568
aS'Outside the US, in what countries can kumquat trees be found?'
p2569
aS'In which continent did Kumquat trees originate?'
p2570
aS'What holiday are kumquat trees associated with?'
p2571
aS'Other'
p2572
aS'What type of produce is a kumquat?'
p2573
aS'What is the genus of kumquat?'
p2574
aS'What color is a kumquat?'
p2575
aS'What is the diameter of a kumquat?'
p2576
aS'Outside the US, in what countries can kumquat trees be found?'
p2577
aS'In which continent did Kumquat trees originate?'
p2578
aS'What holiday are kumquat trees associated with?'
p2579
aS'Other'
p2580
aS'What type of produce is a kumquat?'
p2581
aS'What is the genus of kumquat?'
p2582
aS'What color is a kumquat?'
p2583
aS'What is the diameter of a kumquat?'
p2584
aS'Outside the US, in what countries can kumquat trees be found?'
p2585
aS'In which continent did Kumquat trees originate?'
p2586
aS'What holiday are kumquat trees associated with?'
p2587
aS'Other'
p2588
aS'What type of produce is a kumquat?'
p2589
aS'What is the genus of kumquat?'
p2590
aS'What color is a kumquat?'
p2591
aS'What is the diameter of a kumquat?'
p2592
aS'Outside the US, in what countries can kumquat trees be found?'
p2593
aS'In which continent did Kumquat trees originate?'
p2594
aS'What holiday are kumquat trees associated with?'
p2595
aS'Other'
p2596
aS'What type of produce is a kumquat?'
p2597
aS'What is the genus of kumquat?'
p2598
aS'What color is a kumquat?'
p2599
aS'What is the diameter of a kumquat?'
p2600
aS'Outside the US, in what countries can kumquat trees be found?'
p2601
aS'In which continent did Kumquat trees originate?'
p2602
aS'What holiday are kumquat trees associated with?'
p2603
aS'Other'
p2604
aS'On what date was she born?'
p2605
aS'What year did she come to the United States?'
p2606
aS"What school did she get her bachelor's degree from?"
p2607
aS'What is the name of the philosophy that she started?'
p2608
aS'What government officials have been influenced by this philosophy?'
p2609
aS'What were her fictional publications (including novels, novelettes, and plays)?'
p2610
aS'What was the name of her husband?'
p2611
aS'What year did she die?'
p2612
aS'Other'
p2613
aS'On what date was she born?'
p2614
aS'What year did she come to the United States?'
p2615
aS"What school did she get her bachelor's degree from?"
p2616
aS'What is the name of the philosophy that she started?'
p2617
aS'What government officials have been influenced by this philosophy?'
p2618
aS'What were her fictional publications (including novels, novelettes, and plays)?'
p2619
aS'What was the name of her husband?'
p2620
aS'What year did she die?'
p2621
aS'Other'
p2622
aS'On what date was she born?'
p2623
aS'What year did she come to the United States?'
p2624
aS"What school did she get her bachelor's degree from?"
p2625
aS'What is the name of the philosophy that she started?'
p2626
aS'What government officials have been influenced by this philosophy?'
p2627
aS'What were her fictional publications (including novels, novelettes, and plays)?'
p2628
aS'What was the name of her husband?'
p2629
aS'What year did she die?'
p2630
aS'Other'
p2631
aS'On what date was she born?'
p2632
aS'What year did she come to the United States?'
p2633
aS"What school did she get her bachelor's degree from?"
p2634
aS'What is the name of the philosophy that she started?'
p2635
aS'What government officials have been influenced by this philosophy?'
p2636
aS'What were her fictional publications (including novels, novelettes, and plays)?'
p2637
aS'What was the name of her husband?'
p2638
aS'What year did she die?'
p2639
aS'Other'
p2640
aS'On what date was she born?'
p2641
aS'What year did she come to the United States?'
p2642
aS"What school did she get her bachelor's degree from?"
p2643
aS'What is the name of the philosophy that she started?'
p2644
aS'What government officials have been influenced by this philosophy?'
p2645
aS'What were her fictional publications (including novels, novelettes, and plays)?'
p2646
aS'What was the name of her husband?'
p2647
aS'What year did she die?'
p2648
aS'Other'
p2649
aS'On what date was she born?'
p2650
aS'What year did she come to the United States?'
p2651
aS"What school did she get her bachelor's degree from?"
p2652
aS'What is the name of the philosophy that she started?'
p2653
aS'What government officials have been influenced by this philosophy?'
p2654
aS'What were her fictional publications (including novels, novelettes, and plays)?'
p2655
aS'What was the name of her husband?'
p2656
aS'What year did she die?'
p2657
aS'Other'
p2658
aS'On what date was she born?'
p2659
aS'What year did she come to the United States?'
p2660
aS"What school did she get her bachelor's degree from?"
p2661
aS'What is the name of the philosophy that she started?'
p2662
aS'What government officials have been influenced by this philosophy?'
p2663
aS'What were her fictional publications (including novels, novelettes, and plays)?'
p2664
aS'What was the name of her husband?'
p2665
aS'What year did she die?'
p2666
aS'Other'
p2667
aS'On what date was she born?'
p2668
aS'What year did she come to the United States?'
p2669
aS"What school did she get her bachelor's degree from?"
p2670
aS'What is the name of the philosophy that she started?'
p2671
aS'What government officials have been influenced by this philosophy?'
p2672
aS'What were her fictional publications (including novels, novelettes, and plays)?'
p2673
aS'What was the name of her husband?'
p2674
aS'What year did she die?'
p2675
aS'Other'
p2676
aS'On what date was she born?'
p2677
aS'What year did she come to the United States?'
p2678
aS"What school did she get her bachelor's degree from?"
p2679
aS'What is the name of the philosophy that she started?'
p2680
aS'What government officials have been influenced by this philosophy?'
p2681
aS'What were her fictional publications (including novels, novelettes, and plays)?'
p2682
aS'What was the name of her husband?'
p2683
aS'What year did she die?'
p2684
aS'Other'
p2685
aS'When was Alan Greenspan born?'
p2686
aS"What school did he get his bachelor's degree from?"
p2687
aS'What federal organization was Mr. Greenspan chairman of?'
p2688
aS'When (month and year) was he first nominated to this position?'
p2689
aS'How long did he serve in this position?'
p2690
aS'Who has served longer in this position?'
p2691
aS"Who has been selected to be Mr. Greenspan's successor as chairman?"
p2692
aS'How many chairmen of this organization have there been since it was established in 1913?'
p2693
aS'What foreign countries did Mr. Greenspan visit while chairman?'
p2694
aS'Other'
p2695
aS'When was Alan Greenspan born?'
p2696
aS"What school did he get his bachelor's degree from?"
p2697
aS'What federal organization was Mr. Greenspan chairman of?'
p2698
aS'When (month and year) was he first nominated to this position?'
p2699
aS'How long did he serve in this position?'
p2700
aS'Who has served longer in this position?'
p2701
aS"Who has been selected to be Mr. Greenspan's successor as chairman?"
p2702
aS'How many chairmen of this organization have there been since it was established in 1913?'
p2703
aS'What foreign countries did Mr. Greenspan visit while chairman?'
p2704
aS'Other'
p2705
aS'When was Alan Greenspan born?'
p2706
aS"What school did he get his bachelor's degree from?"
p2707
aS'What federal organization was Mr. Greenspan chairman of?'
p2708
aS'When (month and year) was he first nominated to this position?'
p2709
aS'How long did he serve in this position?'
p2710
aS'Who has served longer in this position?'
p2711
aS"Who has been selected to be Mr. Greenspan's successor as chairman?"
p2712
aS'How many chairmen of this organization have there been since it was established in 1913?'
p2713
aS'What foreign countries did Mr. Greenspan visit while chairman?'
p2714
aS'Other'
p2715
aS'When was Alan Greenspan born?'
p2716
aS"What school did he get his bachelor's degree from?"
p2717
aS'What federal organization was Mr. Greenspan chairman of?'
p2718
aS'When (month and year) was he first nominated to this position?'
p2719
aS'How long did he serve in this position?'
p2720
aS'Who has served longer in this position?'
p2721
aS"Who has been selected to be Mr. Greenspan's successor as chairman?"
p2722
aS'How many chairmen of this organization have there been since it was established in 1913?'
p2723
aS'What foreign countries did Mr. Greenspan visit while chairman?'
p2724
aS'Other'
p2725
aS'When was Alan Greenspan born?'
p2726
aS"What school did he get his bachelor's degree from?"
p2727
aS'What federal organization was Mr. Greenspan chairman of?'
p2728
aS'When (month and year) was he first nominated to this position?'
p2729
aS'How long did he serve in this position?'
p2730
aS'Who has served longer in this position?'
p2731
aS"Who has been selected to be Mr. Greenspan's successor as chairman?"
p2732
aS'How many chairmen of this organization have there been since it was established in 1913?'
p2733
aS'What foreign countries did Mr. Greenspan visit while chairman?'
p2734
aS'Other'
p2735
aS'When was Alan Greenspan born?'
p2736
aS"What school did he get his bachelor's degree from?"
p2737
aS'What federal organization was Mr. Greenspan chairman of?'
p2738
aS'When (month and year) was he first nominated to this position?'
p2739
aS'How long did he serve in this position?'
p2740
aS'Who has served longer in this position?'
p2741
aS"Who has been selected to be Mr. Greenspan's successor as chairman?"
p2742
aS'How many chairmen of this organization have there been since it was established in 1913?'
p2743
aS'What foreign countries did Mr. Greenspan visit while chairman?'
p2744
aS'Other'
p2745
aS'When was Alan Greenspan born?'
p2746
aS"What school did he get his bachelor's degree from?"
p2747
aS'What federal organization was Mr. Greenspan chairman of?'
p2748
aS'When (month and year) was he first nominated to this position?'
p2749
aS'How long did he serve in this position?'
p2750
aS'Who has served longer in this position?'
p2751
aS"Who has been selected to be Mr. Greenspan's successor as chairman?"
p2752
aS'How many chairmen of this organization have there been since it was established in 1913?'
p2753
aS'What foreign countries did Mr. Greenspan visit while chairman?'
p2754
aS'Other'
p2755
aS'When was Alan Greenspan born?'
p2756
aS"What school did he get his bachelor's degree from?"
p2757
aS'What federal organization was Mr. Greenspan chairman of?'
p2758
aS'When (month and year) was he first nominated to this position?'
p2759
aS'How long did he serve in this position?'
p2760
aS'Who has served longer in this position?'
p2761
aS"Who has been selected to be Mr. Greenspan's successor as chairman?"
p2762
aS'How many chairmen of this organization have there been since it was established in 1913?'
p2763
aS'What foreign countries did Mr. Greenspan visit while chairman?'
p2764
aS'Other'
p2765
aS'When was Alan Greenspan born?'
p2766
aS"What school did he get his bachelor's degree from?"
p2767
aS'What federal organization was Mr. Greenspan chairman of?'
p2768
aS'When (month and year) was he first nominated to this position?'
p2769
aS'How long did he serve in this position?'
p2770
aS'Who has served longer in this position?'
p2771
aS"Who has been selected to be Mr. Greenspan's successor as chairman?"
p2772
aS'How many chairmen of this organization have there been since it was established in 1913?'
p2773
aS'What foreign countries did Mr. Greenspan visit while chairman?'
p2774
aS'Other'
p2775
aS'When was Alan Greenspan born?'
p2776
aS"What school did he get his bachelor's degree from?"
p2777
aS'What federal organization was Mr. Greenspan chairman of?'
p2778
aS'When (month and year) was he first nominated to this position?'
p2779
aS'How long did he serve in this position?'
p2780
aS'Who has served longer in this position?'
p2781
aS"Who has been selected to be Mr. Greenspan's successor as chairman?"
p2782
aS'How many chairmen of this organization have there been since it was established in 1913?'
p2783
aS'What foreign countries did Mr. Greenspan visit while chairman?'
p2784
aS'Other'
p2785
aS'What country is Ahmadinejad president of?'
p2786
aS'In what town was he born?'
p2787
aS'On what date was he born?'
p2788
aS'He holds a Ph.D. in what field?'
p2789
aS'What foreign countries has he visited since his election to the presidency?'
p2790
aS'What other positions has he held in government?'
p2791
aS'Other'
p2792
aS'What country is Ahmadinejad president of?'
p2793
aS'In what town was he born?'
p2794
aS'On what date was he born?'
p2795
aS'He holds a Ph.D. in what field?'
p2796
aS'What foreign countries has he visited since his election to the presidency?'
p2797
aS'What other positions has he held in government?'
p2798
aS'Other'
p2799
aS'What country is Ahmadinejad president of?'
p2800
aS'In what town was he born?'
p2801
aS'On what date was he born?'
p2802
aS'He holds a Ph.D. in what field?'
p2803
aS'What foreign countries has he visited since his election to the presidency?'
p2804
aS'What other positions has he held in government?'
p2805
aS'Other'
p2806
aS'What country is Ahmadinejad president of?'
p2807
aS'In what town was he born?'
p2808
aS'On what date was he born?'
p2809
aS'He holds a Ph.D. in what field?'
p2810
aS'What foreign countries has he visited since his election to the presidency?'
p2811
aS'What other positions has he held in government?'
p2812
aS'Other'
p2813
aS'What country is Ahmadinejad president of?'
p2814
aS'In what town was he born?'
p2815
aS'On what date was he born?'
p2816
aS'He holds a Ph.D. in what field?'
p2817
aS'What foreign countries has he visited since his election to the presidency?'
p2818
aS'What other positions has he held in government?'
p2819
aS'Other'
p2820
aS'What country is Ahmadinejad president of?'
p2821
aS'In what town was he born?'
p2822
aS'On what date was he born?'
p2823
aS'He holds a Ph.D. in what field?'
p2824
aS'What foreign countries has he visited since his election to the presidency?'
p2825
aS'What other positions has he held in government?'
p2826
aS'Other'
p2827
aS'What country is Ahmadinejad president of?'
p2828
aS'In what town was he born?'
p2829
aS'On what date was he born?'
p2830
aS'He holds a Ph.D. in what field?'
p2831
aS'What foreign countries has he visited since his election to the presidency?'
p2832
aS'What other positions has he held in government?'
p2833
aS'Other'
p2834
aS'When was Rafik Hariri born?'
p2835
aS'To what religion did he belong (including sect)?'
p2836
aS'From what university did he get a degree?'
p2837
aS'At what time in the day was he assassinated?'
p2838
aS'How many others were killed at the same time?'
p2839
aS"What country did the UN investigator, Detlev Mehlis, accuse of responsibility for Hariri's assassination?"
p2840
aS'How long did Hariri serve as prime minister, total?'
p2841
aS'What country other than Lebanon did he hold citizenship?'
p2842
aS'What countries offered condolences at his death?'
p2843
aS'Other'
p2844
aS'When was Rafik Hariri born?'
p2845
aS'To what religion did he belong (including sect)?'
p2846
aS'From what university did he get a degree?'
p2847
aS'At what time in the day was he assassinated?'
p2848
aS'How many others were killed at the same time?'
p2849
aS"What country did the UN investigator, Detlev Mehlis, accuse of responsibility for Hariri's assassination?"
p2850
aS'How long did Hariri serve as prime minister, total?'
p2851
aS'What country other than Lebanon did he hold citizenship?'
p2852
aS'What countries offered condolences at his death?'
p2853
aS'Other'
p2854
aS'When was Rafik Hariri born?'
p2855
aS'To what religion did he belong (including sect)?'
p2856
aS'From what university did he get a degree?'
p2857
aS'At what time in the day was he assassinated?'
p2858
aS'How many others were killed at the same time?'
p2859
aS"What country did the UN investigator, Detlev Mehlis, accuse of responsibility for Hariri's assassination?"
p2860
aS'How long did Hariri serve as prime minister, total?'
p2861
aS'What country other than Lebanon did he hold citizenship?'
p2862
aS'What countries offered condolences at his death?'
p2863
aS'Other'
p2864
aS'When was Rafik Hariri born?'
p2865
aS'To what religion did he belong (including sect)?'
p2866
aS'From what university did he get a degree?'
p2867
aS'At what time in the day was he assassinated?'
p2868
aS'How many others were killed at the same time?'
p2869
aS"What country did the UN investigator, Detlev Mehlis, accuse of responsibility for Hariri's assassination?"
p2870
aS'How long did Hariri serve as prime minister, total?'
p2871
aS'What country other than Lebanon did he hold citizenship?'
p2872
aS'What countries offered condolences at his death?'
p2873
aS'Other'
p2874
aS'When was Rafik Hariri born?'
p2875
aS'To what religion did he belong (including sect)?'
p2876
aS'From what university did he get a degree?'
p2877
aS'At what time in the day was he assassinated?'
p2878
aS'How many others were killed at the same time?'
p2879
aS"What country did the UN investigator, Detlev Mehlis, accuse of responsibility for Hariri's assassination?"
p2880
aS'How long did Hariri serve as prime minister, total?'
p2881
aS'What country other than Lebanon did he hold citizenship?'
p2882
aS'What countries offered condolences at his death?'
p2883
aS'Other'
p2884
aS'When was Rafik Hariri born?'
p2885
aS'To what religion did he belong (including sect)?'
p2886
aS'From what university did he get a degree?'
p2887
aS'At what time in the day was he assassinated?'
p2888
aS'How many others were killed at the same time?'
p2889
aS"What country did the UN investigator, Detlev Mehlis, accuse of responsibility for Hariri's assassination?"
p2890
aS'How long did Hariri serve as prime minister, total?'
p2891
aS'What country other than Lebanon did he hold citizenship?'
p2892
aS'What countries offered condolences at his death?'
p2893
aS'Other'
p2894
aS'When was Rafik Hariri born?'
p2895
aS'To what religion did he belong (including sect)?'
p2896
aS'From what university did he get a degree?'
p2897
aS'At what time in the day was he assassinated?'
p2898
aS'How many others were killed at the same time?'
p2899
aS"What country did the UN investigator, Detlev Mehlis, accuse of responsibility for Hariri's assassination?"
p2900
aS'How long did Hariri serve as prime minister, total?'
p2901
aS'What country other than Lebanon did he hold citizenship?'
p2902
aS'What countries offered condolences at his death?'
p2903
aS'Other'
p2904
aS'When was Rafik Hariri born?'
p2905
aS'To what religion did he belong (including sect)?'
p2906
aS'From what university did he get a degree?'
p2907
aS'At what time in the day was he assassinated?'
p2908
aS'How many others were killed at the same time?'
p2909
aS"What country did the UN investigator, Detlev Mehlis, accuse of responsibility for Hariri's assassination?"
p2910
aS'How long did Hariri serve as prime minister, total?'
p2911
aS'What country other than Lebanon did he hold citizenship?'
p2912
aS'What countries offered condolences at his death?'
p2913
aS'Other'
p2914
aS'When was Rafik Hariri born?'
p2915
aS'To what religion did he belong (including sect)?'
p2916
aS'From what university did he get a degree?'
p2917
aS'At what time in the day was he assassinated?'
p2918
aS'How many others were killed at the same time?'
p2919
aS"What country did the UN investigator, Detlev Mehlis, accuse of responsibility for Hariri's assassination?"
p2920
aS'How long did Hariri serve as prime minister, total?'
p2921
aS'What country other than Lebanon did he hold citizenship?'
p2922
aS'What countries offered condolences at his death?'
p2923
aS'Other'
p2924
aS'When was Rafik Hariri born?'
p2925
aS'To what religion did he belong (including sect)?'
p2926
aS'From what university did he get a degree?'
p2927
aS'At what time in the day was he assassinated?'
p2928
aS'How many others were killed at the same time?'
p2929
aS"What country did the UN investigator, Detlev Mehlis, accuse of responsibility for Hariri's assassination?"
p2930
aS'How long did Hariri serve as prime minister, total?'
p2931
aS'What country other than Lebanon did he hold citizenship?'
p2932
aS'What countries offered condolences at his death?'
p2933
aS'Other'
p2934
aS'What does the acronym FISA stand for?'
p2935
aS'In what year was the court established?'
p2936
aS'In 1990, how many wiretap applications were approved?'
p2937
aS'How long a term do FISA judges serve?'
p2938
aS'Under the original act, how many judges were to be on the court?'
p2939
aS'Name the judges serving on this court in November 2005.'
p2940
aS'Other'
p2941
aS'What does the acronym FISA stand for?'
p2942
aS'In what year was the court established?'
p2943
aS'In 1990, how many wiretap applications were approved?'
p2944
aS'How long a term do FISA judges serve?'
p2945
aS'Under the original act, how many judges were to be on the court?'
p2946
aS'Name the judges serving on this court in November 2005.'
p2947
aS'Other'
p2948
aS'What does the acronym FISA stand for?'
p2949
aS'In what year was the court established?'
p2950
aS'In 1990, how many wiretap applications were approved?'
p2951
aS'How long a term do FISA judges serve?'
p2952
aS'Under the original act, how many judges were to be on the court?'
p2953
aS'Name the judges serving on this court in November 2005.'
p2954
aS'Other'
p2955
aS'What does the acronym FISA stand for?'
p2956
aS'In what year was the court established?'
p2957
aS'In 1990, how many wiretap applications were approved?'
p2958
aS'How long a term do FISA judges serve?'
p2959
aS'Under the original act, how many judges were to be on the court?'
p2960
aS'Name the judges serving on this court in November 2005.'
p2961
aS'Other'
p2962
aS'What does the acronym FISA stand for?'
p2963
aS'In what year was the court established?'
p2964
aS'In 1990, how many wiretap applications were approved?'
p2965
aS'How long a term do FISA judges serve?'
p2966
aS'Under the original act, how many judges were to be on the court?'
p2967
aS'Name the judges serving on this court in November 2005.'
p2968
aS'Other'
p2969
aS'What does the acronym FISA stand for?'
p2970
aS'In what year was the court established?'
p2971
aS'In 1990, how many wiretap applications were approved?'
p2972
aS'How long a term do FISA judges serve?'
p2973
aS'Under the original act, how many judges were to be on the court?'
p2974
aS'Name the judges serving on this court in November 2005.'
p2975
aS'Other'
p2976
aS'What does the acronym FISA stand for?'
p2977
aS'In what year was the court established?'
p2978
aS'In 1990, how many wiretap applications were approved?'
p2979
aS'How long a term do FISA judges serve?'
p2980
aS'Under the original act, how many judges were to be on the court?'
p2981
aS'Name the judges serving on this court in November 2005.'
p2982
aS'Other'
p2983
aS'On what date was the evacuation of the settlers completed?'
p2984
aS'How many settlers were evacuated?'
p2985
aS'What is the average compensation paid for each evacuated family?'
p2986
aS'How many soldiers or police officers were used to carry out the evacuation?'
p2987
aS'Who contributed money to purchase the Gaza greenhouses and supporting equipment?'
p2988
aS'In the three months following the evacuation, how many rockets were fired at Israel from Gaza?'
p2989
aS'What were the settlements that were evacuated?'
p2990
aS'Other'
p2991
aS'On what date was the evacuation of the settlers completed?'
p2992
aS'How many settlers were evacuated?'
p2993
aS'What is the average compensation paid for each evacuated family?'
p2994
aS'How many soldiers or police officers were used to carry out the evacuation?'
p2995
aS'Who contributed money to purchase the Gaza greenhouses and supporting equipment?'
p2996
aS'In the three months following the evacuation, how many rockets were fired at Israel from Gaza?'
p2997
aS'What were the settlements that were evacuated?'
p2998
aS'Other'
p2999
aS'On what date was the evacuation of the settlers completed?'
p3000
aS'How many settlers were evacuated?'
p3001
aS'What is the average compensation paid for each evacuated family?'
p3002
aS'How many soldiers or police officers were used to carry out the evacuation?'
p3003
aS'Who contributed money to purchase the Gaza greenhouses and supporting equipment?'
p3004
aS'In the three months following the evacuation, how many rockets were fired at Israel from Gaza?'
p3005
aS'What were the settlements that were evacuated?'
p3006
aS'Other'
p3007
aS'On what date was the evacuation of the settlers completed?'
p3008
aS'How many settlers were evacuated?'
p3009
aS'What is the average compensation paid for each evacuated family?'
p3010
aS'How many soldiers or police officers were used to carry out the evacuation?'
p3011
aS'Who contributed money to purchase the Gaza greenhouses and supporting equipment?'
p3012
aS'In the three months following the evacuation, how many rockets were fired at Israel from Gaza?'
p3013
aS'What were the settlements that were evacuated?'
p3014
aS'Other'
p3015
aS'On what date was the evacuation of the settlers completed?'
p3016
aS'How many settlers were evacuated?'
p3017
aS'What is the average compensation paid for each evacuated family?'
p3018
aS'How many soldiers or police officers were used to carry out the evacuation?'
p3019
aS'Who contributed money to purchase the Gaza greenhouses and supporting equipment?'
p3020
aS'In the three months following the evacuation, how many rockets were fired at Israel from Gaza?'
p3021
aS'What were the settlements that were evacuated?'
p3022
aS'Other'
p3023
aS'On what date was the evacuation of the settlers completed?'
p3024
aS'How many settlers were evacuated?'
p3025
aS'What is the average compensation paid for each evacuated family?'
p3026
aS'How many soldiers or police officers were used to carry out the evacuation?'
p3027
aS'Who contributed money to purchase the Gaza greenhouses and supporting equipment?'
p3028
aS'In the three months following the evacuation, how many rockets were fired at Israel from Gaza?'
p3029
aS'What were the settlements that were evacuated?'
p3030
aS'Other'
p3031
aS'On what date was the evacuation of the settlers completed?'
p3032
aS'How many settlers were evacuated?'
p3033
aS'What is the average compensation paid for each evacuated family?'
p3034
aS'How many soldiers or police officers were used to carry out the evacuation?'
p3035
aS'Who contributed money to purchase the Gaza greenhouses and supporting equipment?'
p3036
aS'In the three months following the evacuation, how many rockets were fired at Israel from Gaza?'
p3037
aS'What were the settlements that were evacuated?'
p3038
aS'Other'
p3039
aS'On what date was the evacuation of the settlers completed?'
p3040
aS'How many settlers were evacuated?'
p3041
aS'What is the average compensation paid for each evacuated family?'
p3042
aS'How many soldiers or police officers were used to carry out the evacuation?'
p3043
aS'Who contributed money to purchase the Gaza greenhouses and supporting equipment?'
p3044
aS'In the three months following the evacuation, how many rockets were fired at Israel from Gaza?'
p3045
aS'What were the settlements that were evacuated?'
p3046
aS'Other'
p3047
aS'On what date did this earthquake strike?'
p3048
aS'What countries were affected by this earthquake?'
p3049
aS'What was the final death toll from this earthquake?'
p3050
aS'What was the strength of this earthquake?'
p3051
aS'Where was the epicenter (latitude and longitude)?'
p3052
aS'What countries supplied aid?'
p3053
aS'Other'
p3054
aS'On what date did this earthquake strike?'
p3055
aS'What countries were affected by this earthquake?'
p3056
aS'What was the final death toll from this earthquake?'
p3057
aS'What was the strength of this earthquake?'
p3058
aS'Where was the epicenter (latitude and longitude)?'
p3059
aS'What countries supplied aid?'
p3060
aS'Other'
p3061
aS'On what date did this earthquake strike?'
p3062
aS'What countries were affected by this earthquake?'
p3063
aS'What was the final death toll from this earthquake?'
p3064
aS'What was the strength of this earthquake?'
p3065
aS'Where was the epicenter (latitude and longitude)?'
p3066
aS'What countries supplied aid?'
p3067
aS'Other'
p3068
aS'On what date did this earthquake strike?'
p3069
aS'What countries were affected by this earthquake?'
p3070
aS'What was the final death toll from this earthquake?'
p3071
aS'What was the strength of this earthquake?'
p3072
aS'Where was the epicenter (latitude and longitude)?'
p3073
aS'What countries supplied aid?'
p3074
aS'Other'
p3075
aS'On what date did this earthquake strike?'
p3076
aS'What countries were affected by this earthquake?'
p3077
aS'What was the final death toll from this earthquake?'
p3078
aS'What was the strength of this earthquake?'
p3079
aS'Where was the epicenter (latitude and longitude)?'
p3080
aS'What countries supplied aid?'
p3081
aS'Other'
p3082
aS'On what date did this earthquake strike?'
p3083
aS'What countries were affected by this earthquake?'
p3084
aS'What was the final death toll from this earthquake?'
p3085
aS'What was the strength of this earthquake?'
p3086
aS'Where was the epicenter (latitude and longitude)?'
p3087
aS'What countries supplied aid?'
p3088
aS'Other'
p3089
aS'On what date did this earthquake strike?'
p3090
aS'What countries were affected by this earthquake?'
p3091
aS'What was the final death toll from this earthquake?'
p3092
aS'What was the strength of this earthquake?'
p3093
aS'Where was the epicenter (latitude and longitude)?'
p3094
aS'What countries supplied aid?'
p3095
aS'Other'
p3096
aS'On what date did Opportunity land on Mars?'
p3097
aS'Who manages this mission?'
p3098
aS'What was the original plans for the mission length?'
p3099
aS'How many meters has Opportunity traveled on Mars?'
p3100
aS'What is the minimum power requirement per day for one of these rovers to function?'
p3101
aS'What named landmarks were visited by one of these rovers?'
p3102
aS'Other'
p3103
aS'On what date did Opportunity land on Mars?'
p3104
aS'Who manages this mission?'
p3105
aS'What was the original plans for the mission length?'
p3106
aS'How many meters has Opportunity traveled on Mars?'
p3107
aS'What is the minimum power requirement per day for one of these rovers to function?'
p3108
aS'What named landmarks were visited by one of these rovers?'
p3109
aS'Other'
p3110
aS'On what date did Opportunity land on Mars?'
p3111
aS'Who manages this mission?'
p3112
aS'What was the original plans for the mission length?'
p3113
aS'How many meters has Opportunity traveled on Mars?'
p3114
aS'What is the minimum power requirement per day for one of these rovers to function?'
p3115
aS'What named landmarks were visited by one of these rovers?'
p3116
aS'Other'
p3117
aS'On what date did Opportunity land on Mars?'
p3118
aS'Who manages this mission?'
p3119
aS'What was the original plans for the mission length?'
p3120
aS'How many meters has Opportunity traveled on Mars?'
p3121
aS'What is the minimum power requirement per day for one of these rovers to function?'
p3122
aS'What named landmarks were visited by one of these rovers?'
p3123
aS'Other'
p3124
aS'On what date did Opportunity land on Mars?'
p3125
aS'Who manages this mission?'
p3126
aS'What was the original plans for the mission length?'
p3127
aS'How many meters has Opportunity traveled on Mars?'
p3128
aS'What is the minimum power requirement per day for one of these rovers to function?'
p3129
aS'What named landmarks were visited by one of these rovers?'
p3130
aS'Other'
p3131
aS'On what date did Opportunity land on Mars?'
p3132
aS'Who manages this mission?'
p3133
aS'What was the original plans for the mission length?'
p3134
aS'How many meters has Opportunity traveled on Mars?'
p3135
aS'What is the minimum power requirement per day for one of these rovers to function?'
p3136
aS'What named landmarks were visited by one of these rovers?'
p3137
aS'Other'
p3138
aS'On what date did Opportunity land on Mars?'
p3139
aS'Who manages this mission?'
p3140
aS'What was the original plans for the mission length?'
p3141
aS'How many meters has Opportunity traveled on Mars?'
p3142
aS'What is the minimum power requirement per day for one of these rovers to function?'
p3143
aS'What named landmarks were visited by one of these rovers?'
p3144
aS'Other'
p3145
aS"What is Jon Bon Jovi's profession?"
p3146
aS'When was Bon Jovi born?'
p3147
aS'Where was Bon Jovi born?'
p3148
aS'What are some Bon Jovi hits?'
p3149
aS'In what movie did Bon Jovi star?'
p3150
aS'In how many concerts has Bon Jovi performed?'
p3151
aS'Other'
p3152
aS"What is Jon Bon Jovi's profession?"
p3153
aS'When was Bon Jovi born?'
p3154
aS'Where was Bon Jovi born?'
p3155
aS'What are some Bon Jovi hits?'
p3156
aS'In what movie did Bon Jovi star?'
p3157
aS'In how many concerts has Bon Jovi performed?'
p3158
aS'Other'
p3159
aS"What is Jon Bon Jovi's profession?"
p3160
aS'When was Bon Jovi born?'
p3161
aS'Where was Bon Jovi born?'
p3162
aS'What are some Bon Jovi hits?'
p3163
aS'In what movie did Bon Jovi star?'
p3164
aS'In how many concerts has Bon Jovi performed?'
p3165
aS'Other'
p3166
aS"What is Jon Bon Jovi's profession?"
p3167
aS'When was Bon Jovi born?'
p3168
aS'Where was Bon Jovi born?'
p3169
aS'What are some Bon Jovi hits?'
p3170
aS'In what movie did Bon Jovi star?'
p3171
aS'In how many concerts has Bon Jovi performed?'
p3172
aS'Other'
p3173
aS"What is Jon Bon Jovi's profession?"
p3174
aS'When was Bon Jovi born?'
p3175
aS'Where was Bon Jovi born?'
p3176
aS'What are some Bon Jovi hits?'
p3177
aS'In what movie did Bon Jovi star?'
p3178
aS'In how many concerts has Bon Jovi performed?'
p3179
aS'Other'
p3180
aS"What is Jon Bon Jovi's profession?"
p3181
aS'When was Bon Jovi born?'
p3182
aS'Where was Bon Jovi born?'
p3183
aS'What are some Bon Jovi hits?'
p3184
aS'In what movie did Bon Jovi star?'
p3185
aS'In how many concerts has Bon Jovi performed?'
p3186
aS'Other'
p3187
aS"What is Jon Bon Jovi's profession?"
p3188
aS'When was Bon Jovi born?'
p3189
aS'Where was Bon Jovi born?'
p3190
aS'What are some Bon Jovi hits?'
p3191
aS'In what movie did Bon Jovi star?'
p3192
aS'In how many concerts has Bon Jovi performed?'
p3193
aS'Other'
p3194
aS'In what US state was Barack Obama born?'
p3195
aS'On what date was Obama born?'
p3196
aS'What year was Obama elected to the US Senate?'
p3197
aS'Whom did Obama defeat for the US Senate seat?'
p3198
aS'What position did Obama hold before becoming US senator?'
p3199
aS'In which US states has Barack Obama lived?'
p3200
aS'Other'
p3201
aS'In what US state was Barack Obama born?'
p3202
aS'On what date was Obama born?'
p3203
aS'What year was Obama elected to the US Senate?'
p3204
aS'Whom did Obama defeat for the US Senate seat?'
p3205
aS'What position did Obama hold before becoming US senator?'
p3206
aS'In which US states has Barack Obama lived?'
p3207
aS'Other'
p3208
aS'In what US state was Barack Obama born?'
p3209
aS'On what date was Obama born?'
p3210
aS'What year was Obama elected to the US Senate?'
p3211
aS'Whom did Obama defeat for the US Senate seat?'
p3212
aS'What position did Obama hold before becoming US senator?'
p3213
aS'In which US states has Barack Obama lived?'
p3214
aS'Other'
p3215
aS'In what US state was Barack Obama born?'
p3216
aS'On what date was Obama born?'
p3217
aS'What year was Obama elected to the US Senate?'
p3218
aS'Whom did Obama defeat for the US Senate seat?'
p3219
aS'What position did Obama hold before becoming US senator?'
p3220
aS'In which US states has Barack Obama lived?'
p3221
aS'Other'
p3222
aS'In what US state was Barack Obama born?'
p3223
aS'On what date was Obama born?'
p3224
aS'What year was Obama elected to the US Senate?'
p3225
aS'Whom did Obama defeat for the US Senate seat?'
p3226
aS'What position did Obama hold before becoming US senator?'
p3227
aS'In which US states has Barack Obama lived?'
p3228
aS'Other'
p3229
aS'In what US state was Barack Obama born?'
p3230
aS'On what date was Obama born?'
p3231
aS'What year was Obama elected to the US Senate?'
p3232
aS'Whom did Obama defeat for the US Senate seat?'
p3233
aS'What position did Obama hold before becoming US senator?'
p3234
aS'In which US states has Barack Obama lived?'
p3235
aS'Other'
p3236
aS'In what US state was Barack Obama born?'
p3237
aS'On what date was Obama born?'
p3238
aS'What year was Obama elected to the US Senate?'
p3239
aS'Whom did Obama defeat for the US Senate seat?'
p3240
aS'What position did Obama hold before becoming US senator?'
p3241
aS'In which US states has Barack Obama lived?'
p3242
aS'Other'
p3243
aS"How big is Limbaugh's listening audience?"
p3244
aS"How many markets carry Limbaugh's radio show?"
p3245
aS'When was Limbaugh born?'
p3246
aS'How many times has Limbaugh been married?'
p3247
aS'What drugs did Limbaugh take for back pain?'
p3248
aS'What books has Limbaugh written?'
p3249
aS'Other'
p3250
aS"How big is Limbaugh's listening audience?"
p3251
aS"How many markets carry Limbaugh's radio show?"
p3252
aS'When was Limbaugh born?'
p3253
aS'How many times has Limbaugh been married?'
p3254
aS'What drugs did Limbaugh take for back pain?'
p3255
aS'What books has Limbaugh written?'
p3256
aS'Other'
p3257
aS"How big is Limbaugh's listening audience?"
p3258
aS"How many markets carry Limbaugh's radio show?"
p3259
aS'When was Limbaugh born?'
p3260
aS'How many times has Limbaugh been married?'
p3261
aS'What drugs did Limbaugh take for back pain?'
p3262
aS'What books has Limbaugh written?'
p3263
aS'Other'
p3264
aS"How big is Limbaugh's listening audience?"
p3265
aS"How many markets carry Limbaugh's radio show?"
p3266
aS'When was Limbaugh born?'
p3267
aS'How many times has Limbaugh been married?'
p3268
aS'What drugs did Limbaugh take for back pain?'
p3269
aS'What books has Limbaugh written?'
p3270
aS'Other'
p3271
aS"How big is Limbaugh's listening audience?"
p3272
aS"How many markets carry Limbaugh's radio show?"
p3273
aS'When was Limbaugh born?'
p3274
aS'How many times has Limbaugh been married?'
p3275
aS'What drugs did Limbaugh take for back pain?'
p3276
aS'What books has Limbaugh written?'
p3277
aS'Other'
p3278
aS"How big is Limbaugh's listening audience?"
p3279
aS"How many markets carry Limbaugh's radio show?"
p3280
aS'When was Limbaugh born?'
p3281
aS'How many times has Limbaugh been married?'
p3282
aS'What drugs did Limbaugh take for back pain?'
p3283
aS'What books has Limbaugh written?'
p3284
aS'Other'
p3285
aS"How big is Limbaugh's listening audience?"
p3286
aS"How many markets carry Limbaugh's radio show?"
p3287
aS'When was Limbaugh born?'
p3288
aS'How many times has Limbaugh been married?'
p3289
aS'What drugs did Limbaugh take for back pain?'
p3290
aS'What books has Limbaugh written?'
p3291
aS'Other'
p3292
aS'Where is Exxon Mobile headquartered?'
p3293
aS'In what year did Exxon and Mobile merge?'
p3294
aS'Who is the Exxon Mobile CEO?'
p3295
aS'In what countries has Exxon Mobile explored for oil?'
p3296
aS'How much oil was spilled by the Exxon tanker Valdez?'
p3297
aS'What was the cost of the oil clean-up?'
p3298
aS'On what date did the oil spill occur?'
p3299
aS'Other'
p3300
aS'Where is Exxon Mobile headquartered?'
p3301
aS'In what year did Exxon and Mobile merge?'
p3302
aS'Who is the Exxon Mobile CEO?'
p3303
aS'In what countries has Exxon Mobile explored for oil?'
p3304
aS'How much oil was spilled by the Exxon tanker Valdez?'
p3305
aS'What was the cost of the oil clean-up?'
p3306
aS'On what date did the oil spill occur?'
p3307
aS'Other'
p3308
aS'Where is Exxon Mobile headquartered?'
p3309
aS'In what year did Exxon and Mobile merge?'
p3310
aS'Who is the Exxon Mobile CEO?'
p3311
aS'In what countries has Exxon Mobile explored for oil?'
p3312
aS'How much oil was spilled by the Exxon tanker Valdez?'
p3313
aS'What was the cost of the oil clean-up?'
p3314
aS'On what date did the oil spill occur?'
p3315
aS'Other'
p3316
aS'Where is Exxon Mobile headquartered?'
p3317
aS'In what year did Exxon and Mobile merge?'
p3318
aS'Who is the Exxon Mobile CEO?'
p3319
aS'In what countries has Exxon Mobile explored for oil?'
p3320
aS'How much oil was spilled by the Exxon tanker Valdez?'
p3321
aS'What was the cost of the oil clean-up?'
p3322
aS'On what date did the oil spill occur?'
p3323
aS'Other'
p3324
aS'Where is Exxon Mobile headquartered?'
p3325
aS'In what year did Exxon and Mobile merge?'
p3326
aS'Who is the Exxon Mobile CEO?'
p3327
aS'In what countries has Exxon Mobile explored for oil?'
p3328
aS'How much oil was spilled by the Exxon tanker Valdez?'
p3329
aS'What was the cost of the oil clean-up?'
p3330
aS'On what date did the oil spill occur?'
p3331
aS'Other'
p3332
aS'Where is Exxon Mobile headquartered?'
p3333
aS'In what year did Exxon and Mobile merge?'
p3334
aS'Who is the Exxon Mobile CEO?'
p3335
aS'In what countries has Exxon Mobile explored for oil?'
p3336
aS'How much oil was spilled by the Exxon tanker Valdez?'
p3337
aS'What was the cost of the oil clean-up?'
p3338
aS'On what date did the oil spill occur?'
p3339
aS'Other'
p3340
aS'Where is Exxon Mobile headquartered?'
p3341
aS'In what year did Exxon and Mobile merge?'
p3342
aS'Who is the Exxon Mobile CEO?'
p3343
aS'In what countries has Exxon Mobile explored for oil?'
p3344
aS'How much oil was spilled by the Exxon tanker Valdez?'
p3345
aS'What was the cost of the oil clean-up?'
p3346
aS'On what date did the oil spill occur?'
p3347
aS'Other'
p3348
aS'Where is Exxon Mobile headquartered?'
p3349
aS'In what year did Exxon and Mobile merge?'
p3350
aS'Who is the Exxon Mobile CEO?'
p3351
aS'In what countries has Exxon Mobile explored for oil?'
p3352
aS'How much oil was spilled by the Exxon tanker Valdez?'
p3353
aS'What was the cost of the oil clean-up?'
p3354
aS'On what date did the oil spill occur?'
p3355
aS'Other'
p3356
aS'What type of music is performed by the Dixie Chicks?'
p3357
aS'What are the names of the Dixie Chicks?'
p3358
aS'The Dixie Chicks are from which state?'
p3359
aS'Which of the Dixie Chicks criticized President Bush?'
p3360
aS'List songs recorded by the Dixie Chicks.'
p3361
aS'Other'
p3362
aS'What type of music is performed by the Dixie Chicks?'
p3363
aS'What are the names of the Dixie Chicks?'
p3364
aS'The Dixie Chicks are from which state?'
p3365
aS'Which of the Dixie Chicks criticized President Bush?'
p3366
aS'List songs recorded by the Dixie Chicks.'
p3367
aS'Other'
p3368
aS'What type of music is performed by the Dixie Chicks?'
p3369
aS'What are the names of the Dixie Chicks?'
p3370
aS'The Dixie Chicks are from which state?'
p3371
aS'Which of the Dixie Chicks criticized President Bush?'
p3372
aS'List songs recorded by the Dixie Chicks.'
p3373
aS'Other'
p3374
aS'What type of music is performed by the Dixie Chicks?'
p3375
aS'What are the names of the Dixie Chicks?'
p3376
aS'The Dixie Chicks are from which state?'
p3377
aS'Which of the Dixie Chicks criticized President Bush?'
p3378
aS'List songs recorded by the Dixie Chicks.'
p3379
aS'Other'
p3380
aS'What type of music is performed by the Dixie Chicks?'
p3381
aS'What are the names of the Dixie Chicks?'
p3382
aS'The Dixie Chicks are from which state?'
p3383
aS'Which of the Dixie Chicks criticized President Bush?'
p3384
aS'List songs recorded by the Dixie Chicks.'
p3385
aS'Other'
p3386
aS'What type of music is performed by the Dixie Chicks?'
p3387
aS'What are the names of the Dixie Chicks?'
p3388
aS'The Dixie Chicks are from which state?'
p3389
aS'Which of the Dixie Chicks criticized President Bush?'
p3390
aS'List songs recorded by the Dixie Chicks.'
p3391
aS'Other'
p3392
aS'What was the nickname given to the B-17 Bomber?'
p3393
aS'What company manufactured the B-17 bomber?'
p3394
aS"How many B-17's were built?"
p3395
aS'The B-17 bomber was used against which countries?'
p3396
aS'How many missions did the Memphis Belle fly?'
p3397
aS'Other'
p3398
aS'What was the nickname given to the B-17 Bomber?'
p3399
aS'What company manufactured the B-17 bomber?'
p3400
aS"How many B-17's were built?"
p3401
aS'The B-17 bomber was used against which countries?'
p3402
aS'How many missions did the Memphis Belle fly?'
p3403
aS'Other'
p3404
aS'What was the nickname given to the B-17 Bomber?'
p3405
aS'What company manufactured the B-17 bomber?'
p3406
aS"How many B-17's were built?"
p3407
aS'The B-17 bomber was used against which countries?'
p3408
aS'How many missions did the Memphis Belle fly?'
p3409
aS'Other'
p3410
aS'What was the nickname given to the B-17 Bomber?'
p3411
aS'What company manufactured the B-17 bomber?'
p3412
aS"How many B-17's were built?"
p3413
aS'The B-17 bomber was used against which countries?'
p3414
aS'How many missions did the Memphis Belle fly?'
p3415
aS'Other'
p3416
aS'What was the nickname given to the B-17 Bomber?'
p3417
aS'What company manufactured the B-17 bomber?'
p3418
aS"How many B-17's were built?"
p3419
aS'The B-17 bomber was used against which countries?'
p3420
aS'How many missions did the Memphis Belle fly?'
p3421
aS'Other'
p3422
aS'What was the nickname given to the B-17 Bomber?'
p3423
aS'What company manufactured the B-17 bomber?'
p3424
aS"How many B-17's were built?"
p3425
aS'The B-17 bomber was used against which countries?'
p3426
aS'How many missions did the Memphis Belle fly?'
p3427
aS'Other'
p3428
aS'How many engines does the Boeing 777 have?'
p3429
aS'What is the non-stop distance record established by the Boeing 777?'
p3430
aS'How many versions of the Boeing 777 are there?'
p3431
aS'Where is the Boeing 777 built?'
p3432
aS'What countries have placed orders to buy the Boeing 777?'
p3433
aS'How many passengers will the Boeing 777 carry?'
p3434
aS'Other'
p3435
aS'How many engines does the Boeing 777 have?'
p3436
aS'What is the non-stop distance record established by the Boeing 777?'
p3437
aS'How many versions of the Boeing 777 are there?'
p3438
aS'Where is the Boeing 777 built?'
p3439
aS'What countries have placed orders to buy the Boeing 777?'
p3440
aS'How many passengers will the Boeing 777 carry?'
p3441
aS'Other'
p3442
aS'How many engines does the Boeing 777 have?'
p3443
aS'What is the non-stop distance record established by the Boeing 777?'
p3444
aS'How many versions of the Boeing 777 are there?'
p3445
aS'Where is the Boeing 777 built?'
p3446
aS'What countries have placed orders to buy the Boeing 777?'
p3447
aS'How many passengers will the Boeing 777 carry?'
p3448
aS'Other'
p3449
aS'How many engines does the Boeing 777 have?'
p3450
aS'What is the non-stop distance record established by the Boeing 777?'
p3451
aS'How many versions of the Boeing 777 are there?'
p3452
aS'Where is the Boeing 777 built?'
p3453
aS'What countries have placed orders to buy the Boeing 777?'
p3454
aS'How many passengers will the Boeing 777 carry?'
p3455
aS'Other'
p3456
aS'How many engines does the Boeing 777 have?'
p3457
aS'What is the non-stop distance record established by the Boeing 777?'
p3458
aS'How many versions of the Boeing 777 are there?'
p3459
aS'Where is the Boeing 777 built?'
p3460
aS'What countries have placed orders to buy the Boeing 777?'
p3461
aS'How many passengers will the Boeing 777 carry?'
p3462
aS'Other'
p3463
aS'How many engines does the Boeing 777 have?'
p3464
aS'What is the non-stop distance record established by the Boeing 777?'
p3465
aS'How many versions of the Boeing 777 are there?'
p3466
aS'Where is the Boeing 777 built?'
p3467
aS'What countries have placed orders to buy the Boeing 777?'
p3468
aS'How many passengers will the Boeing 777 carry?'
p3469
aS'Other'
p3470
aS'How many engines does the Boeing 777 have?'
p3471
aS'What is the non-stop distance record established by the Boeing 777?'
p3472
aS'How many versions of the Boeing 777 are there?'
p3473
aS'Where is the Boeing 777 built?'
p3474
aS'What countries have placed orders to buy the Boeing 777?'
p3475
aS'How many passengers will the Boeing 777 carry?'
p3476
aS'Other'
p3477
aS"How many years did it take to build St. Peter's Basilica?"
p3478
aS"How tall is St. Peter's Basilica?"
p3479
aS'What Pope started the building of the basilica?'
p3480
aS"What Pope finished building St. Peter's?"
p3481
aS"What architects were involved in building St. Peter's?"
p3482
aS"Who built the basilica that previously stood at the same site as St. Peter's Basilica?"
p3483
aS'Other'
p3484
aS"How many years did it take to build St. Peter's Basilica?"
p3485
aS"How tall is St. Peter's Basilica?"
p3486
aS'What Pope started the building of the basilica?'
p3487
aS"What Pope finished building St. Peter's?"
p3488
aS"What architects were involved in building St. Peter's?"
p3489
aS"Who built the basilica that previously stood at the same site as St. Peter's Basilica?"
p3490
aS'Other'
p3491
aS"How many years did it take to build St. Peter's Basilica?"
p3492
aS"How tall is St. Peter's Basilica?"
p3493
aS'What Pope started the building of the basilica?'
p3494
aS"What Pope finished building St. Peter's?"
p3495
aS"What architects were involved in building St. Peter's?"
p3496
aS"Who built the basilica that previously stood at the same site as St. Peter's Basilica?"
p3497
aS'Other'
p3498
aS"How many years did it take to build St. Peter's Basilica?"
p3499
aS"How tall is St. Peter's Basilica?"
p3500
aS'What Pope started the building of the basilica?'
p3501
aS"What Pope finished building St. Peter's?"
p3502
aS"What architects were involved in building St. Peter's?"
p3503
aS"Who built the basilica that previously stood at the same site as St. Peter's Basilica?"
p3504
aS'Other'
p3505
aS"How many years did it take to build St. Peter's Basilica?"
p3506
aS"How tall is St. Peter's Basilica?"
p3507
aS'What Pope started the building of the basilica?'
p3508
aS"What Pope finished building St. Peter's?"
p3509
aS"What architects were involved in building St. Peter's?"
p3510
aS"Who built the basilica that previously stood at the same site as St. Peter's Basilica?"
p3511
aS'Other'
p3512
aS"How many years did it take to build St. Peter's Basilica?"
p3513
aS"How tall is St. Peter's Basilica?"
p3514
aS'What Pope started the building of the basilica?'
p3515
aS"What Pope finished building St. Peter's?"
p3516
aS"What architects were involved in building St. Peter's?"
p3517
aS"Who built the basilica that previously stood at the same site as St. Peter's Basilica?"
p3518
aS'Other'
p3519
aS"How many years did it take to build St. Peter's Basilica?"
p3520
aS"How tall is St. Peter's Basilica?"
p3521
aS'What Pope started the building of the basilica?'
p3522
aS"What Pope finished building St. Peter's?"
p3523
aS"What architects were involved in building St. Peter's?"
p3524
aS"Who built the basilica that previously stood at the same site as St. Peter's Basilica?"
p3525
aS'Other'
p3526
aS"What is Australia's signature grape?"
p3527
aS'How much wine does Australia export to the U.S.?'
p3528
aS'Where does Australia rank in exports of wine?'
p3529
aS'What winery produces Yellowtail?'
p3530
aS"Name some of Australia's female winemakers."
p3531
aS'Other'
p3532
aS"What is Australia's signature grape?"
p3533
aS'How much wine does Australia export to the U.S.?'
p3534
aS'Where does Australia rank in exports of wine?'
p3535
aS'What winery produces Yellowtail?'
p3536
aS"Name some of Australia's female winemakers."
p3537
aS'Other'
p3538
aS"What is Australia's signature grape?"
p3539
aS'How much wine does Australia export to the U.S.?'
p3540
aS'Where does Australia rank in exports of wine?'
p3541
aS'What winery produces Yellowtail?'
p3542
aS"Name some of Australia's female winemakers."
p3543
aS'Other'
p3544
aS"What is Australia's signature grape?"
p3545
aS'How much wine does Australia export to the U.S.?'
p3546
aS'Where does Australia rank in exports of wine?'
p3547
aS'What winery produces Yellowtail?'
p3548
aS"Name some of Australia's female winemakers."
p3549
aS'Other'
p3550
aS"What is Australia's signature grape?"
p3551
aS'How much wine does Australia export to the U.S.?'
p3552
aS'Where does Australia rank in exports of wine?'
p3553
aS'What winery produces Yellowtail?'
p3554
aS"Name some of Australia's female winemakers."
p3555
aS'Other'
p3556
aS"What is Australia's signature grape?"
p3557
aS'How much wine does Australia export to the U.S.?'
p3558
aS'Where does Australia rank in exports of wine?'
p3559
aS'What winery produces Yellowtail?'
p3560
aS"Name some of Australia's female winemakers."
p3561
aS'Other'
p3562
aS'In what country is Angkor Wat?'
p3563
aS'How many monuments are there in Angkor Wat?'
p3564
aS'How long did it take to build the temples?'
p3565
aS'What temples are at Angkor Wat?'
p3566
aS'Which is the largest temple at Angkor Wat?'
p3567
aS'How many people visit Angkor Wat annually?'
p3568
aS'Other'
p3569
aS'In what country is Angkor Wat?'
p3570
aS'How many monuments are there in Angkor Wat?'
p3571
aS'How long did it take to build the temples?'
p3572
aS'What temples are at Angkor Wat?'
p3573
aS'Which is the largest temple at Angkor Wat?'
p3574
aS'How many people visit Angkor Wat annually?'
p3575
aS'Other'
p3576
aS'In what country is Angkor Wat?'
p3577
aS'How many monuments are there in Angkor Wat?'
p3578
aS'How long did it take to build the temples?'
p3579
aS'What temples are at Angkor Wat?'
p3580
aS'Which is the largest temple at Angkor Wat?'
p3581
aS'How many people visit Angkor Wat annually?'
p3582
aS'Other'
p3583
aS'In what country is Angkor Wat?'
p3584
aS'How many monuments are there in Angkor Wat?'
p3585
aS'How long did it take to build the temples?'
p3586
aS'What temples are at Angkor Wat?'
p3587
aS'Which is the largest temple at Angkor Wat?'
p3588
aS'How many people visit Angkor Wat annually?'
p3589
aS'Other'
p3590
aS'In what country is Angkor Wat?'
p3591
aS'How many monuments are there in Angkor Wat?'
p3592
aS'How long did it take to build the temples?'
p3593
aS'What temples are at Angkor Wat?'
p3594
aS'Which is the largest temple at Angkor Wat?'
p3595
aS'How many people visit Angkor Wat annually?'
p3596
aS'Other'
p3597
aS'In what country is Angkor Wat?'
p3598
aS'How many monuments are there in Angkor Wat?'
p3599
aS'How long did it take to build the temples?'
p3600
aS'What temples are at Angkor Wat?'
p3601
aS'Which is the largest temple at Angkor Wat?'
p3602
aS'How many people visit Angkor Wat annually?'
p3603
aS'Other'
p3604
aS'In what country is Angkor Wat?'
p3605
aS'How many monuments are there in Angkor Wat?'
p3606
aS'How long did it take to build the temples?'
p3607
aS'What temples are at Angkor Wat?'
p3608
aS'Which is the largest temple at Angkor Wat?'
p3609
aS'How many people visit Angkor Wat annually?'
p3610
aS'Other'
p3611
aS'How old is Joseph Steffen?'
p3612
aS'What governor employed Steffen?'
p3613
aS'In what state was Steffen employed?'
p3614
aS'How many state jobs did Steffen hold?'
p3615
aS'Who has employed Steffen?'
p3616
aS'Who was the target of rumors spread by Steffen?'
p3617
aS'Other'
p3618
aS'How old is Joseph Steffen?'
p3619
aS'What governor employed Steffen?'
p3620
aS'In what state was Steffen employed?'
p3621
aS'How many state jobs did Steffen hold?'
p3622
aS'Who has employed Steffen?'
p3623
aS'Who was the target of rumors spread by Steffen?'
p3624
aS'Other'
p3625
aS'How old is Joseph Steffen?'
p3626
aS'What governor employed Steffen?'
p3627
aS'In what state was Steffen employed?'
p3628
aS'How many state jobs did Steffen hold?'
p3629
aS'Who has employed Steffen?'
p3630
aS'Who was the target of rumors spread by Steffen?'
p3631
aS'Other'
p3632
aS'How old is Joseph Steffen?'
p3633
aS'What governor employed Steffen?'
p3634
aS'In what state was Steffen employed?'
p3635
aS'How many state jobs did Steffen hold?'
p3636
aS'Who has employed Steffen?'
p3637
aS'Who was the target of rumors spread by Steffen?'
p3638
aS'Other'
p3639
aS'How old is Joseph Steffen?'
p3640
aS'What governor employed Steffen?'
p3641
aS'In what state was Steffen employed?'
p3642
aS'How many state jobs did Steffen hold?'
p3643
aS'Who has employed Steffen?'
p3644
aS'Who was the target of rumors spread by Steffen?'
p3645
aS'Other'
p3646
aS'How old is Joseph Steffen?'
p3647
aS'What governor employed Steffen?'
p3648
aS'In what state was Steffen employed?'
p3649
aS'How many state jobs did Steffen hold?'
p3650
aS'Who has employed Steffen?'
p3651
aS'Who was the target of rumors spread by Steffen?'
p3652
aS'Other'
p3653
aS'How old is Joseph Steffen?'
p3654
aS'What governor employed Steffen?'
p3655
aS'In what state was Steffen employed?'
p3656
aS'How many state jobs did Steffen hold?'
p3657
aS'Who has employed Steffen?'
p3658
aS'Who was the target of rumors spread by Steffen?'
p3659
aS'Other'
p3660
aS'What nationality is novelist Orhan Pamuk?'
p3661
aS"What is Pamuk's year of birth?"
p3662
aS"What is Pamuk's city of birth?"
p3663
aS'What awards has Pamuk won?'
p3664
aS"What are titles of Pamuk's works?"
p3665
aS"Into how many languages have Pamuk's works been translated?"
p3666
aS'Other'
p3667
aS'What nationality is novelist Orhan Pamuk?'
p3668
aS"What is Pamuk's year of birth?"
p3669
aS"What is Pamuk's city of birth?"
p3670
aS'What awards has Pamuk won?'
p3671
aS"What are titles of Pamuk's works?"
p3672
aS"Into how many languages have Pamuk's works been translated?"
p3673
aS'Other'
p3674
aS'What nationality is novelist Orhan Pamuk?'
p3675
aS"What is Pamuk's year of birth?"
p3676
aS"What is Pamuk's city of birth?"
p3677
aS'What awards has Pamuk won?'
p3678
aS"What are titles of Pamuk's works?"
p3679
aS"Into how many languages have Pamuk's works been translated?"
p3680
aS'Other'
p3681
aS'What nationality is novelist Orhan Pamuk?'
p3682
aS"What is Pamuk's year of birth?"
p3683
aS"What is Pamuk's city of birth?"
p3684
aS'What awards has Pamuk won?'
p3685
aS"What are titles of Pamuk's works?"
p3686
aS"Into how many languages have Pamuk's works been translated?"
p3687
aS'Other'
p3688
aS'What nationality is novelist Orhan Pamuk?'
p3689
aS"What is Pamuk's year of birth?"
p3690
aS"What is Pamuk's city of birth?"
p3691
aS'What awards has Pamuk won?'
p3692
aS"What are titles of Pamuk's works?"
p3693
aS"Into how many languages have Pamuk's works been translated?"
p3694
aS'Other'
p3695
aS'What nationality is novelist Orhan Pamuk?'
p3696
aS"What is Pamuk's year of birth?"
p3697
aS"What is Pamuk's city of birth?"
p3698
aS'What awards has Pamuk won?'
p3699
aS"What are titles of Pamuk's works?"
p3700
aS"Into how many languages have Pamuk's works been translated?"
p3701
aS'Other'
p3702
aS'What nationality is novelist Orhan Pamuk?'
p3703
aS"What is Pamuk's year of birth?"
p3704
aS"What is Pamuk's city of birth?"
p3705
aS'What awards has Pamuk won?'
p3706
aS"What are titles of Pamuk's works?"
p3707
aS"Into how many languages have Pamuk's works been translated?"
p3708
aS'Other'
p3709
aS'In what year was Habitat for Humanity founded?'
p3710
aS'Who was the founder of Habitat?'
p3711
aS'In what city and state are Habitat for Humanity International headquarters?'
p3712
aS"Who is Habitat for Humanity's most famous volunteer?"
p3713
aS'How many volunteers have contributed to building houses for Habitat for Humanity?'
p3714
aS'In what countries has Habitat for Humanity provided assistance abroad?'
p3715
aS'Other'
p3716
aS'In what year was Habitat for Humanity founded?'
p3717
aS'Who was the founder of Habitat?'
p3718
aS'In what city and state are Habitat for Humanity International headquarters?'
p3719
aS"Who is Habitat for Humanity's most famous volunteer?"
p3720
aS'How many volunteers have contributed to building houses for Habitat for Humanity?'
p3721
aS'In what countries has Habitat for Humanity provided assistance abroad?'
p3722
aS'Other'
p3723
aS'In what year was Habitat for Humanity founded?'
p3724
aS'Who was the founder of Habitat?'
p3725
aS'In what city and state are Habitat for Humanity International headquarters?'
p3726
aS"Who is Habitat for Humanity's most famous volunteer?"
p3727
aS'How many volunteers have contributed to building houses for Habitat for Humanity?'
p3728
aS'In what countries has Habitat for Humanity provided assistance abroad?'
p3729
aS'Other'
p3730
aS'In what year was Habitat for Humanity founded?'
p3731
aS'Who was the founder of Habitat?'
p3732
aS'In what city and state are Habitat for Humanity International headquarters?'
p3733
aS"Who is Habitat for Humanity's most famous volunteer?"
p3734
aS'How many volunteers have contributed to building houses for Habitat for Humanity?'
p3735
aS'In what countries has Habitat for Humanity provided assistance abroad?'
p3736
aS'Other'
p3737
aS'In what year was Habitat for Humanity founded?'
p3738
aS'Who was the founder of Habitat?'
p3739
aS'In what city and state are Habitat for Humanity International headquarters?'
p3740
aS"Who is Habitat for Humanity's most famous volunteer?"
p3741
aS'How many volunteers have contributed to building houses for Habitat for Humanity?'
p3742
aS'In what countries has Habitat for Humanity provided assistance abroad?'
p3743
aS'Other'
p3744
aS'In what year was Habitat for Humanity founded?'
p3745
aS'Who was the founder of Habitat?'
p3746
aS'In what city and state are Habitat for Humanity International headquarters?'
p3747
aS"Who is Habitat for Humanity's most famous volunteer?"
p3748
aS'How many volunteers have contributed to building houses for Habitat for Humanity?'
p3749
aS'In what countries has Habitat for Humanity provided assistance abroad?'
p3750
aS'Other'
p3751
aS'In what year was Habitat for Humanity founded?'
p3752
aS'Who was the founder of Habitat?'
p3753
aS'In what city and state are Habitat for Humanity International headquarters?'
p3754
aS"Who is Habitat for Humanity's most famous volunteer?"
p3755
aS'How many volunteers have contributed to building houses for Habitat for Humanity?'
p3756
aS'In what countries has Habitat for Humanity provided assistance abroad?'
p3757
aS'Other'
p3758
aS'What is the full name for CAFTA?'
p3759
aS'How many countries are included in CAFTA?'
p3760
aS'When was CAFTA signed?'
p3761
aS'What was the deadline for implementation of CAFTA?'
p3762
aS'When did the U.S. Congress approve CAFTA?'
p3763
aS'What members of the U.S. House of Representatives opposed CAFTA?'
p3764
aS'Other'
p3765
aS'What is the full name for CAFTA?'
p3766
aS'How many countries are included in CAFTA?'
p3767
aS'When was CAFTA signed?'
p3768
aS'What was the deadline for implementation of CAFTA?'
p3769
aS'When did the U.S. Congress approve CAFTA?'
p3770
aS'What members of the U.S. House of Representatives opposed CAFTA?'
p3771
aS'Other'
p3772
aS'What is the full name for CAFTA?'
p3773
aS'How many countries are included in CAFTA?'
p3774
aS'When was CAFTA signed?'
p3775
aS'What was the deadline for implementation of CAFTA?'
p3776
aS'When did the U.S. Congress approve CAFTA?'
p3777
aS'What members of the U.S. House of Representatives opposed CAFTA?'
p3778
aS'Other'
p3779
aS'What is the full name for CAFTA?'
p3780
aS'How many countries are included in CAFTA?'
p3781
aS'When was CAFTA signed?'
p3782
aS'What was the deadline for implementation of CAFTA?'
p3783
aS'When did the U.S. Congress approve CAFTA?'
p3784
aS'What members of the U.S. House of Representatives opposed CAFTA?'
p3785
aS'Other'
p3786
aS'What is the full name for CAFTA?'
p3787
aS'How many countries are included in CAFTA?'
p3788
aS'When was CAFTA signed?'
p3789
aS'What was the deadline for implementation of CAFTA?'
p3790
aS'When did the U.S. Congress approve CAFTA?'
p3791
aS'What members of the U.S. House of Representatives opposed CAFTA?'
p3792
aS'Other'
p3793
aS'What is the full name for CAFTA?'
p3794
aS'How many countries are included in CAFTA?'
p3795
aS'When was CAFTA signed?'
p3796
aS'What was the deadline for implementation of CAFTA?'
p3797
aS'When did the U.S. Congress approve CAFTA?'
p3798
aS'What members of the U.S. House of Representatives opposed CAFTA?'
p3799
aS'Other'
p3800
aS'What is the full name for CAFTA?'
p3801
aS'How many countries are included in CAFTA?'
p3802
aS'When was CAFTA signed?'
p3803
aS'What was the deadline for implementation of CAFTA?'
p3804
aS'When did the U.S. Congress approve CAFTA?'
p3805
aS'What members of the U.S. House of Representatives opposed CAFTA?'
p3806
aS'Other'
p3807
aS'In what year did Sir Edmund Hillary search for Yeti?'
p3808
aS'In what U.S. states have sightings of Yeti been reported?'
p3809
aS'What was the height of Yeti reported as sighted in Malaysia?'
p3810
aS'In what province and country were Yeti vocalizations recorded?'
p3811
aS'What other names have been used for Yeti?'
p3812
aS'Other'
p3813
aS'In what year did Sir Edmund Hillary search for Yeti?'
p3814
aS'In what U.S. states have sightings of Yeti been reported?'
p3815
aS'What was the height of Yeti reported as sighted in Malaysia?'
p3816
aS'In what province and country were Yeti vocalizations recorded?'
p3817
aS'What other names have been used for Yeti?'
p3818
aS'Other'
p3819
aS'In what year did Sir Edmund Hillary search for Yeti?'
p3820
aS'In what U.S. states have sightings of Yeti been reported?'
p3821
aS'What was the height of Yeti reported as sighted in Malaysia?'
p3822
aS'In what province and country were Yeti vocalizations recorded?'
p3823
aS'What other names have been used for Yeti?'
p3824
aS'Other'
p3825
aS'In what year did Sir Edmund Hillary search for Yeti?'
p3826
aS'In what U.S. states have sightings of Yeti been reported?'
p3827
aS'What was the height of Yeti reported as sighted in Malaysia?'
p3828
aS'In what province and country were Yeti vocalizations recorded?'
p3829
aS'What other names have been used for Yeti?'
p3830
aS'Other'
p3831
aS'In what year did Sir Edmund Hillary search for Yeti?'
p3832
aS'In what U.S. states have sightings of Yeti been reported?'
p3833
aS'What was the height of Yeti reported as sighted in Malaysia?'
p3834
aS'In what province and country were Yeti vocalizations recorded?'
p3835
aS'What other names have been used for Yeti?'
p3836
aS'Other'
p3837
aS'In what year did Sir Edmund Hillary search for Yeti?'
p3838
aS'In what U.S. states have sightings of Yeti been reported?'
p3839
aS'What was the height of Yeti reported as sighted in Malaysia?'
p3840
aS'In what province and country were Yeti vocalizations recorded?'
p3841
aS'What other names have been used for Yeti?'
p3842
aS'Other'
p3843
a.